1     0000              MODULE pietro_enemies_c
2     0000              
3     0000              ;--------------------------------------------------------
4     0000              ; File Created by SDCC : free open source ANSI-C Compiler
5     0000              ; Version 3.6.5 #9833 (MSVC)
6     0000              ;--------------------------------------------------------
7     0000              ; Processed by Z88DK
8     0000              ;--------------------------------------------------------
9     0000              
10    0000              	EXTERN __divschar
11    0000              	EXTERN __divschar_callee
12    0000              	EXTERN __divsint
13    0000              	EXTERN __divsint_callee
14    0000              	EXTERN __divslong
15    0000              	EXTERN __divslong_callee
16    0000              	EXTERN __divslonglong
17    0000              	EXTERN __divslonglong_callee
18    0000              	EXTERN __divsuchar
19    0000              	EXTERN __divsuchar_callee
20    0000              	EXTERN __divuchar
21    0000              	EXTERN __divuchar_callee
22    0000              	EXTERN __divuint
23    0000              	EXTERN __divuint_callee
24    0000              	EXTERN __divulong
25    0000              	EXTERN __divulong_callee
26    0000              	EXTERN __divulonglong
27    0000              	EXTERN __divulonglong_callee
28    0000              	EXTERN __divuschar
29    0000              	EXTERN __divuschar_callee
30    0000              	EXTERN __modschar
31    0000              	EXTERN __modschar_callee
32    0000              	EXTERN __modsint
33    0000              	EXTERN __modsint_callee
34    0000              	EXTERN __modslong
35    0000              	EXTERN __modslong_callee
36    0000              	EXTERN __modslonglong
37    0000              	EXTERN __modslonglong_callee
38    0000              	EXTERN __modsuchar
39    0000              	EXTERN __modsuchar_callee
40    0000              	EXTERN __moduchar
41    0000              	EXTERN __moduchar_callee
42    0000              	EXTERN __moduint
43    0000              	EXTERN __moduint_callee
44    0000              	EXTERN __modulong
45    0000              	EXTERN __modulong_callee
46    0000              	EXTERN __modulonglong
47    0000              	EXTERN __modulonglong_callee
48    0000              	EXTERN __moduschar
49    0000              	EXTERN __moduschar_callee
50    0000              	EXTERN __mulint
51    0000              	EXTERN __mulint_callee
52    0000              	EXTERN __mullong
53    0000              	EXTERN __mullong_callee
54    0000              	EXTERN __mullonglong
55    0000              	EXTERN __mullonglong_callee
56    0000              	EXTERN __mulschar
57    0000              	EXTERN __mulschar_callee
58    0000              	EXTERN __mulsuchar
59    0000              	EXTERN __mulsuchar_callee
60    0000              	EXTERN __muluschar
61    0000              	EXTERN __muluschar_callee
62    0000              	EXTERN __rlslonglong
63    0000              	EXTERN __rlslonglong_callee
64    0000              	EXTERN __rlulonglong
65    0000              	EXTERN __rlulonglong_callee
66    0000              	EXTERN __rrslonglong
67    0000              	EXTERN __rrslonglong_callee
68    0000              	EXTERN __rrulonglong
69    0000              	EXTERN __rrulonglong_callee
70    0000              	EXTERN ___sdcc_call_hl
71    0000              	EXTERN ___sdcc_call_iy
72    0000              	EXTERN ___sdcc_enter_ix
73    0000              	EXTERN _banked_call
74    0000              	EXTERN _banked_ret
75    0000              	EXTERN ___fs2schar
76    0000              	EXTERN ___fs2schar_callee
77    0000              	EXTERN ___fs2sint
78    0000              	EXTERN ___fs2sint_callee
79    0000              	EXTERN ___fs2slong
80    0000              	EXTERN ___fs2slong_callee
81    0000              	EXTERN ___fs2slonglong
82    0000              	EXTERN ___fs2slonglong_callee
83    0000              	EXTERN ___fs2uchar
84    0000              	EXTERN ___fs2uchar_callee
85    0000              	EXTERN ___fs2uint
86    0000              	EXTERN ___fs2uint_callee
87    0000              	EXTERN ___fs2ulong
88    0000              	EXTERN ___fs2ulong_callee
89    0000              	EXTERN ___fs2ulonglong
90    0000              	EXTERN ___fs2ulonglong_callee
91    0000              	EXTERN ___fsadd
92    0000              	EXTERN ___fsadd_callee
93    0000              	EXTERN ___fsdiv
94    0000              	EXTERN ___fsdiv_callee
95    0000              	EXTERN ___fseq
96    0000              	EXTERN ___fseq_callee
97    0000              	EXTERN ___fsgt
98    0000              	EXTERN ___fsgt_callee
99    0000              	EXTERN ___fslt
100   0000              	EXTERN ___fslt_callee
101   0000              	EXTERN ___fsmul
102   0000              	EXTERN ___fsmul_callee
103   0000              	EXTERN ___fsneq
104   0000              	EXTERN ___fsneq_callee
105   0000              	EXTERN ___fssub
106   0000              	EXTERN ___fssub_callee
107   0000              	EXTERN ___schar2fs
108   0000              	EXTERN ___schar2fs_callee
109   0000              	EXTERN ___sint2fs
110   0000              	EXTERN ___sint2fs_callee
111   0000              	EXTERN ___slong2fs
112   0000              	EXTERN ___slong2fs_callee
113   0000              	EXTERN ___slonglong2fs
114   0000              	EXTERN ___slonglong2fs_callee
115   0000              	EXTERN ___uchar2fs
116   0000              	EXTERN ___uchar2fs_callee
117   0000              	EXTERN ___uint2fs
118   0000              	EXTERN ___uint2fs_callee
119   0000              	EXTERN ___ulong2fs
120   0000              	EXTERN ___ulong2fs_callee
121   0000              	EXTERN ___ulonglong2fs
122   0000              	EXTERN ___ulonglong2fs_callee
123   0000              	EXTERN ____sdcc_2_copy_src_mhl_dst_deix
124   0000              	EXTERN ____sdcc_2_copy_src_mhl_dst_bcix
125   0000              	EXTERN ____sdcc_4_copy_src_mhl_dst_deix
126   0000              	EXTERN ____sdcc_4_copy_src_mhl_dst_bcix
127   0000              	EXTERN ____sdcc_4_copy_src_mhl_dst_mbc
128   0000              	EXTERN ____sdcc_4_ldi_nosave_bc
129   0000              	EXTERN ____sdcc_4_ldi_save_bc
130   0000              	EXTERN ____sdcc_4_push_hlix
131   0000              	EXTERN ____sdcc_4_push_mhl
132   0000              	EXTERN ____sdcc_lib_setmem_hl
133   0000              	EXTERN ____sdcc_ll_add_de_bc_hl
134   0000              	EXTERN ____sdcc_ll_add_de_bc_hlix
135   0000              	EXTERN ____sdcc_ll_add_de_hlix_bc
136   0000              	EXTERN ____sdcc_ll_add_de_hlix_bcix
137   0000              	EXTERN ____sdcc_ll_add_deix_bc_hl
138   0000              	EXTERN ____sdcc_ll_add_deix_hlix
139   0000              	EXTERN ____sdcc_ll_add_hlix_bc_deix
140   0000              	EXTERN ____sdcc_ll_add_hlix_deix_bc
141   0000              	EXTERN ____sdcc_ll_add_hlix_deix_bcix
142   0000              	EXTERN ____sdcc_ll_asr_hlix_a
143   0000              	EXTERN ____sdcc_ll_asr_mbc_a
144   0000              	EXTERN ____sdcc_ll_copy_src_de_dst_hlix
145   0000              	EXTERN ____sdcc_ll_copy_src_de_dst_hlsp
146   0000              	EXTERN ____sdcc_ll_copy_src_deix_dst_hl
147   0000              	EXTERN ____sdcc_ll_copy_src_deix_dst_hlix
148   0000              	EXTERN ____sdcc_ll_copy_src_deixm_dst_hlsp
149   0000              	EXTERN ____sdcc_ll_copy_src_desp_dst_hlsp
150   0000              	EXTERN ____sdcc_ll_copy_src_hl_dst_de
151   0000              	EXTERN ____sdcc_ll_copy_src_hlsp_dst_de
152   0000              	EXTERN ____sdcc_ll_copy_src_hlsp_dst_deixm
153   0000              	EXTERN ____sdcc_ll_lsl_hlix_a
154   0000              	EXTERN ____sdcc_ll_lsl_mbc_a
155   0000              	EXTERN ____sdcc_ll_lsr_hlix_a
156   0000              	EXTERN ____sdcc_ll_lsr_mbc_a
157   0000              	EXTERN ____sdcc_ll_push_hlix
158   0000              	EXTERN ____sdcc_ll_push_mhl
159   0000              	EXTERN ____sdcc_ll_sub_de_bc_hl
160   0000              	EXTERN ____sdcc_ll_sub_de_bc_hlix
161   0000              	EXTERN ____sdcc_ll_sub_de_hlix_bc
162   0000              	EXTERN ____sdcc_ll_sub_de_hlix_bcix
163   0000              	EXTERN ____sdcc_ll_sub_deix_bc_hl
164   0000              	EXTERN ____sdcc_ll_sub_deix_hlix
165   0000              	EXTERN ____sdcc_ll_sub_hlix_bc_deix
166   0000              	EXTERN ____sdcc_ll_sub_hlix_deix_bc
167   0000              	EXTERN ____sdcc_ll_sub_hlix_deix_bcix
168   0000              	EXTERN ____sdcc_load_debc_deix
169   0000              	EXTERN ____sdcc_load_dehl_deix
170   0000              	EXTERN ____sdcc_load_debc_mhl
171   0000              	EXTERN ____sdcc_load_hlde_mhl
172   0000              	EXTERN ____sdcc_store_dehl_bcix
173   0000              	EXTERN ____sdcc_store_debc_hlix
174   0000              	EXTERN ____sdcc_store_debc_mhl
175   0000              	EXTERN ____sdcc_z80_pop_ei
176   0000              	EXTERN ____sdcc_z80_pop_ei_jp
177   0000              	EXTERN ____sdcc_z80_push_di
178   0000              
179   0000              ;--------------------------------------------------------
180   0000              ; Public variables in this module
181   0000              ;--------------------------------------------------------
182   0000              	GLOBAL _enemy_coin2
183   0000              	GLOBAL _enemy_coin1
184   0000              	GLOBAL _enemy_collition
185   0000              	GLOBAL _enemy_collition_check
186   0000              	GLOBAL _enemy_hit
187   0000              	GLOBAL _enemy_flip_change_dir
188   0000              	GLOBAL _enemy_flip
189   0000              	GLOBAL _enemy_flip_sidestepper
190   0000              	GLOBAL _enemy_turn
191   0000              	GLOBAL _enemy_standard
192   0000              	GLOBAL _enemy_slipice
193   0000              	GLOBAL _enemy_fireball_red
194   0000              	GLOBAL _enemy_fireball_green
195   0000              	GLOBAL _enemy_fighterfly
196   0000              	GLOBAL _enemy_trip
197   0000              	GLOBAL _enemy_standard_hit
198   0000              	GLOBAL _enemy_evolve
199   0000              	GLOBAL _enemy_upgrade
200   0000              	GLOBAL _enemy_walk
201   0000              	GLOBAL _enemy_init
202   0000              	GLOBAL _enemy_kill
203   0000              ;--------------------------------------------------------
204   0000              ; Externals used
205   0000              ;--------------------------------------------------------
206   0000              	GLOBAL _debug3
207   0000              	GLOBAL _debug2
208   0000              	GLOBAL _debug
209   0000              	GLOBAL _zx_print_str
210   0000              	GLOBAL _zx_print_int
211   0000              	GLOBAL _zx_print_chr
212   0000              	GLOBAL _zx_print_bonus_time
213   0000              	GLOBAL _zx_isr
214   0000              	GLOBAL _z80_otdr_callee
215   0000              	GLOBAL _z80_otdr
216   0000              	GLOBAL _z80_otir_callee
217   0000              	GLOBAL _z80_otir
218   0000              	GLOBAL _z80_outp_callee
219   0000              	GLOBAL _z80_outp
220   0000              	GLOBAL _z80_indr_callee
221   0000              	GLOBAL _z80_indr
222   0000              	GLOBAL _z80_inir_callee
223   0000              	GLOBAL _z80_inir
224   0000              	GLOBAL _z80_inp_fastcall
225   0000              	GLOBAL _z80_inp
226   0000              	GLOBAL _z80_set_int_state_fastcall
227   0000              	GLOBAL _z80_set_int_state
228   0000              	GLOBAL _z80_get_int_state
229   0000              	GLOBAL _z80_delay_tstate_fastcall
230   0000              	GLOBAL _z80_delay_tstate
231   0000              	GLOBAL _z80_delay_ms_fastcall
232   0000              	GLOBAL _z80_delay_ms
233   0000              	GLOBAL _im2_remove_generic_callback_callee
234   0000              	GLOBAL _im2_remove_generic_callback
235   0000              	GLOBAL _im2_prepend_generic_callback_callee
236   0000              	GLOBAL _im2_prepend_generic_callback
237   0000              	GLOBAL _im2_append_generic_callback_callee
238   0000              	GLOBAL _im2_append_generic_callback
239   0000              	GLOBAL _im2_create_generic_isr_8080_callee
240   0000              	GLOBAL _im2_create_generic_isr_8080
241   0000              	GLOBAL _im2_create_generic_isr_callee
242   0000              	GLOBAL _im2_create_generic_isr
243   0000              	GLOBAL _im2_install_isr_callee
244   0000              	GLOBAL _im2_install_isr
245   0000              	GLOBAL _im2_init_fastcall
246   0000              	GLOBAL _im2_init
247   0000              	GLOBAL _zx_pattern_fill_callee
248   0000              	GLOBAL _zx_pattern_fill
249   0000              	GLOBAL _zx_saddrpup_fastcall
250   0000              	GLOBAL _zx_saddrpup
251   0000              	GLOBAL _zx_saddrpright_callee
252   0000              	GLOBAL _zx_saddrpright
253   0000              	GLOBAL _zx_saddrpleft_callee
254   0000              	GLOBAL _zx_saddrpleft
255   0000              	GLOBAL _zx_saddrpdown_fastcall
256   0000              	GLOBAL _zx_saddrpdown
257   0000              	GLOBAL _zx_saddrcup_fastcall
258   0000              	GLOBAL _zx_saddrcup
259   0000              	GLOBAL _zx_saddrcright_fastcall
260   0000              	GLOBAL _zx_saddrcright
261   0000              	GLOBAL _zx_saddrcleft_fastcall
262   0000              	GLOBAL _zx_saddrcleft
263   0000              	GLOBAL _zx_saddrcdown_fastcall
264   0000              	GLOBAL _zx_saddrcdown
265   0000              	GLOBAL _zx_saddr2py_fastcall
266   0000              	GLOBAL _zx_saddr2py
267   0000              	GLOBAL _zx_saddr2px_fastcall
268   0000              	GLOBAL _zx_saddr2px
269   0000              	GLOBAL _zx_saddr2cy_fastcall
270   0000              	GLOBAL _zx_saddr2cy
271   0000              	GLOBAL _zx_saddr2cx_fastcall
272   0000              	GLOBAL _zx_saddr2cx
273   0000              	GLOBAL _zx_saddr2aaddr_fastcall
274   0000              	GLOBAL _zx_saddr2aaddr
275   0000              	GLOBAL _zx_py2saddr_fastcall
276   0000              	GLOBAL _zx_py2saddr
277   0000              	GLOBAL _zx_py2aaddr_fastcall
278   0000              	GLOBAL _zx_py2aaddr
279   0000              	GLOBAL _zx_pxy2saddr_callee
280   0000              	GLOBAL _zx_pxy2saddr
281   0000              	GLOBAL _zx_pxy2aaddr_callee
282   0000              	GLOBAL _zx_pxy2aaddr
283   0000              	GLOBAL _zx_px2bitmask_fastcall
284   0000              	GLOBAL _zx_px2bitmask
285   0000              	GLOBAL _zx_cyx2saddr_callee
286   0000              	GLOBAL _zx_cyx2saddr
287   0000              	GLOBAL _zx_cyx2aaddr_callee
288   0000              	GLOBAL _zx_cyx2aaddr
289   0000              	GLOBAL _zx_cy2saddr_fastcall
290   0000              	GLOBAL _zx_cy2saddr
291   0000              	GLOBAL _zx_cy2aaddr_fastcall
292   0000              	GLOBAL _zx_cy2aaddr
293   0000              	GLOBAL _zx_bitmask2px_fastcall
294   0000              	GLOBAL _zx_bitmask2px
295   0000              	GLOBAL _zx_aaddrcup_fastcall
296   0000              	GLOBAL _zx_aaddrcup
297   0000              	GLOBAL _zx_aaddrcright_fastcall
298   0000              	GLOBAL _zx_aaddrcright
299   0000              	GLOBAL _zx_aaddrcleft_fastcall
300   0000              	GLOBAL _zx_aaddrcleft
301   0000              	GLOBAL _zx_aaddrcdown_fastcall
302   0000              	GLOBAL _zx_aaddrcdown
303   0000              	GLOBAL _zx_aaddr2saddr_fastcall
304   0000              	GLOBAL _zx_aaddr2saddr
305   0000              	GLOBAL _zx_aaddr2py_fastcall
306   0000              	GLOBAL _zx_aaddr2py
307   0000              	GLOBAL _zx_aaddr2px_fastcall
308   0000              	GLOBAL _zx_aaddr2px
309   0000              	GLOBAL _zx_aaddr2cy_fastcall
310   0000              	GLOBAL _zx_aaddr2cy
311   0000              	GLOBAL _zx_aaddr2cx_fastcall
312   0000              	GLOBAL _zx_aaddr2cx
313   0000              	GLOBAL _zx_scroll_wc_up_callee
314   0000              	GLOBAL _zx_scroll_wc_up
315   0000              	GLOBAL _zx_scroll_up_callee
316   0000              	GLOBAL _zx_scroll_up
317   0000              	GLOBAL _zx_cls_wc_callee
318   0000              	GLOBAL _zx_cls_wc
319   0000              	GLOBAL _zx_cls_fastcall
320   0000              	GLOBAL _zx_cls
321   0000              	GLOBAL _zx_border_fastcall
322   0000              	GLOBAL _zx_border
323   0000              	GLOBAL _sound_hit_pow
324   0000              	GLOBAL _sound_hit_brick
325   0000              	GLOBAL _sound_hit_enemy
326   0000              	GLOBAL _sound_kill
327   0000              	GLOBAL _sound_enter_enemy
328   0000              	GLOBAL _sound_coin
329   0000              	GLOBAL _sound_jump
330   0000              	GLOBAL _sound_slide
331   0000              	GLOBAL _spr_draw_clear
332   0000              	GLOBAL _spr_water_splash_draw
333   0000              	GLOBAL _spr_water_splash_clear
334   0000              	GLOBAL _spr_draw_back
335   0000              	GLOBAL _spr_cortina_pipes
336   0000              	GLOBAL _spr_cortina_brick
337   0000              	GLOBAL _spr_brick_anim
338   0000              	GLOBAL _spr_back_fix4
339   0000              	GLOBAL _spr_back_fix3
340   0000              	GLOBAL _spr_back_fix2
341   0000              	GLOBAL _spr_back_fix1
342   0000              	GLOBAL _spr_back_fix
343   0000              	GLOBAL _spr_back_clr
344   0000              	GLOBAL _spr_draw_pow
345   0000              	GLOBAL _spr_tile
346   0000              	GLOBAL _spr_set_fall
347   0000              	GLOBAL _spr_destroy
348   0000              	GLOBAL _spr_check_over
349   0000              	GLOBAL _spr_tile_dir
350   0000              	GLOBAL _spr_anim_kill
351   0000              	GLOBAL _spr_anim_fall
352   0000              	GLOBAL _spr_killed
353   0000              	GLOBAL _spr_redraw
354   0000              	GLOBAL _spr_move_left
355   0000              	GLOBAL _spr_move_right
356   0000              	GLOBAL _spr_move_horizontal
357   0000              	GLOBAL _spr_move_down
358   0000              	GLOBAL _spr_move_up
359   0000              	GLOBAL _spr_chktime
360   0000              	GLOBAL _player_move_horizontal
361   0000              	GLOBAL _player_push_check
362   0000              	GLOBAL _player_push
363   0000              	GLOBAL _player_hit_brick_clear
364   0000              	GLOBAL _player_lost_life
365   0000              	GLOBAL _player_score_add
366   0000              	GLOBAL _player_coin
367   0000              	GLOBAL _player_hit_pow
368   0000              	GLOBAL _player_hit_brick
369   0000              	GLOBAL _player_move_input
370   0000              	GLOBAL _player_turn
371   0000              	GLOBAL _player_move
372   0000              	GLOBAL _player_restart
373   0000              	GLOBAL _player_kill
374   0000              	GLOBAL _player_check_input
375   0000              	GLOBAL _player_collition_check
376   0000              	GLOBAL _player_collition
377   0000              	GLOBAL _player_calc_slide
378   0000              	GLOBAL _player_init
379   0000              	GLOBAL _game_joystick_set_menu
380   0000              	GLOBAL _game_joystick_set
381   0000              	GLOBAL _game_joystick_change
382   0000              	GLOBAL _game_hall_print_p
383   0000              	GLOBAL _game_hall_edit_p
384   0000              	GLOBAL _game_hall_check
385   0000              	GLOBAL _game_hall_enter_phs
386   0000              	GLOBAL _game_print_header
387   0000              	GLOBAL _game_end
388   0000              	GLOBAL _game_hall_enter
389   0000              	GLOBAL _game_hall_of_fame
390   0000              	GLOBAL _game_score_osd
391   0000              	GLOBAL _game_phase_print_score_back
392   0000              	GLOBAL _game_bonus_clock
393   0000              	GLOBAL _game_bonus_summary_player
394   0000              	GLOBAL _game_bonus_summary
395   0000              	GLOBAL _game_check_time
396   0000              	GLOBAL _game_menu_config
397   0000              	GLOBAL _game_menu
398   0000              	GLOBAL _game_rotate_attrib
399   0000              	GLOBAL _game_colour_message
400   0000              	GLOBAL _game_paint_attrib_lin_h
401   0000              	GLOBAL _game_paint_attrib_lin
402   0000              	GLOBAL _game_paint_attrib
403   0000              	GLOBAL _game_menu_paint
404   0000              	GLOBAL _game_menu_top_paint
405   0000              	GLOBAL _game_menu_handle
406   0000              	GLOBAL _game_menu_e
407   0000              	GLOBAL _game_menu_back
408   0000              	GLOBAL _game_print_score
409   0000              	GLOBAL _game_unfreeze_all
410   0000              	GLOBAL _game_freeze_all
411   0000              	GLOBAL _game_freeze
412   0000              	GLOBAL _game_enemy_add_get_index
413   0000              	GLOBAL _game_enemy_add1
414   0000              	GLOBAL _game_enemy_quota
415   0000              	GLOBAL _game_enemy_rnd
416   0000              	GLOBAL _game_enemy_add
417   0000              	GLOBAL _game_check_maze
418   0000              	GLOBAL _game_kill_all_sprites
419   0000              	GLOBAL _game_loop
420   0000              	GLOBAL _player_set2
421   0000              	GLOBAL _player_set1
422   0000              	GLOBAL _game_phase_print
423   0000              	GLOBAL _game_phase_init
424   0000              	GLOBAL _game_phase_calc
425   0000              	GLOBAL _game_start_timer
426   0000              	GLOBAL _game_tick
427   0000              	GLOBAL _game_print_lives
428   0000              	GLOBAL _game_print_footer
429   0000              	GLOBAL _game_calc_index
430   0000              	GLOBAL _game_fill_row
431   0000              	GLOBAL _ay_fx_play
432   0000              	GLOBAL _ay_midi_play
433   0000              	GLOBAL _ay_is_playing
434   0000              	GLOBAL _ay_reset
435   0000              	GLOBAL _test_func
436   0000              	GLOBAL _in_mouse_kempston_wheel_delta
437   0000              	GLOBAL _in_mouse_kempston_wheel
438   0000              	GLOBAL _in_mouse_kempston_callee
439   0000              	GLOBAL _in_mouse_kempston
440   0000              	GLOBAL _in_mouse_kempston_setpos_callee
441   0000              	GLOBAL _in_mouse_kempston_setpos
442   0000              	GLOBAL _in_mouse_kempston_reset
443   0000              	GLOBAL _in_mouse_kempston_init
444   0000              	GLOBAL _in_mouse_amx_wheel_delta
445   0000              	GLOBAL _in_mouse_amx_wheel
446   0000              	GLOBAL _in_mouse_amx_callee
447   0000              	GLOBAL _in_mouse_amx
448   0000              	GLOBAL _in_mouse_amx_setpos_callee
449   0000              	GLOBAL _in_mouse_amx_setpos
450   0000              	GLOBAL _in_mouse_amx_reset
451   0000              	GLOBAL _in_mouse_amx_init_callee
452   0000              	GLOBAL _in_mouse_amx_init
453   0000              	GLOBAL _in_stick_sinclair2
454   0000              	GLOBAL _in_stick_sinclair1
455   0000              	GLOBAL _in_stick_kempston
456   0000              	GLOBAL _in_stick_fuller
457   0000              	GLOBAL _in_stick_cursor
458   0000              	GLOBAL _in_stick_keyboard_fastcall
459   0000              	GLOBAL _in_stick_keyboard
460   0000              	GLOBAL _in_wait_nokey
461   0000              	GLOBAL _in_wait_key
462   0000              	GLOBAL _in_test_key
463   0000              	GLOBAL _in_pause_fastcall
464   0000              	GLOBAL _in_pause
465   0000              	GLOBAL _in_key_scancode_fastcall
466   0000              	GLOBAL _in_key_scancode
467   0000              	GLOBAL _in_key_pressed_fastcall
468   0000              	GLOBAL _in_key_pressed
469   0000              	GLOBAL _in_inkey
470   0000              	GLOBAL _NIRVANAP_drawTW_raw_callee
471   0000              	GLOBAL _NIRVANAP_drawTW_raw
472   0000              	GLOBAL _NIRVANAP_drawTW_callee
473   0000              	GLOBAL _NIRVANAP_drawTW
474   0000              	GLOBAL _NIRVANAP_drawW_raw_callee
475   0000              	GLOBAL _NIRVANAP_drawW_raw
476   0000              	GLOBAL _NIRVANAP_drawW_callee
477   0000              	GLOBAL _NIRVANAP_drawW
478   0000              	GLOBAL _NIRVANAP_spriteT_callee
479   0000              	GLOBAL _NIRVANAP_spriteT
480   0000              	GLOBAL _NIRVANAP_fillC_callee
481   0000              	GLOBAL _NIRVANAP_fillC
482   0000              	GLOBAL _NIRVANAP_readC_callee
483   0000              	GLOBAL _NIRVANAP_readC
484   0000              	GLOBAL _NIRVANAP_paintC_callee
485   0000              	GLOBAL _NIRVANAP_paintC
486   0000              	GLOBAL _NIRVANAP_printC_callee
487   0000              	GLOBAL _NIRVANAP_printC
488   0000              	GLOBAL _NIRVANAP_fillT_raw_callee
489   0000              	GLOBAL _NIRVANAP_fillT_raw
490   0000              	GLOBAL _NIRVANAP_fillT_callee
491   0000              	GLOBAL _NIRVANAP_fillT
492   0000              	GLOBAL _NIRVANAP_drawT_raw_callee
493   0000              	GLOBAL _NIRVANAP_drawT_raw
494   0000              	GLOBAL _NIRVANAP_drawT_callee
495   0000              	GLOBAL _NIRVANAP_drawT
496   0000              	GLOBAL _NIRVANAP_stop
497   0000              	GLOBAL _NIRVANAP_start
498   0000              	GLOBAL _intrinsic_swap_word_32_fastcall
499   0000              	GLOBAL _intrinsic_swap_word_32
500   0000              	GLOBAL _intrinsic_swap_endian_32_fastcall
501   0000              	GLOBAL _intrinsic_swap_endian_32
502   0000              	GLOBAL _intrinsic_swap_endian_16_fastcall
503   0000              	GLOBAL _intrinsic_swap_endian_16
504   0000              	GLOBAL _intrinsic_return_de
505   0000              	GLOBAL _intrinsic_return_bc
506   0000              	GLOBAL _intrinsic_exx
507   0000              	GLOBAL _intrinsic_ex_de_hl
508   0000              	GLOBAL _intrinsic_pop_iy
509   0000              	GLOBAL _intrinsic_pop_ix
510   0000              	GLOBAL _intrinsic_pop_hl
511   0000              	GLOBAL _intrinsic_pop_de
512   0000              	GLOBAL _intrinsic_pop_bc
513   0000              	GLOBAL _intrinsic_pop_af
514   0000              	GLOBAL _intrinsic_push_iy
515   0000              	GLOBAL _intrinsic_push_ix
516   0000              	GLOBAL _intrinsic_push_hl
517   0000              	GLOBAL _intrinsic_push_de
518   0000              	GLOBAL _intrinsic_push_bc
519   0000              	GLOBAL _intrinsic_push_af
520   0000              	GLOBAL _intrinsic_nop
521   0000              	GLOBAL _intrinsic_im_2
522   0000              	GLOBAL _intrinsic_im_1
523   0000              	GLOBAL _intrinsic_im_0
524   0000              	GLOBAL _intrinsic_retn
525   0000              	GLOBAL _intrinsic_reti
526   0000              	GLOBAL _intrinsic_halt
527   0000              	GLOBAL _intrinsic_ei
528   0000              	GLOBAL _intrinsic_di
529   0000              	GLOBAL _intrinsic_stub
530   0000              	GLOBAL _ulltoa_callee
531   0000              	GLOBAL _ulltoa
532   0000              	GLOBAL _strtoull_callee
533   0000              	GLOBAL _strtoull
534   0000              	GLOBAL _strtoll_callee
535   0000              	GLOBAL _strtoll
536   0000              	GLOBAL _lltoa_callee
537   0000              	GLOBAL _lltoa
538   0000              	GLOBAL _llabs_callee
539   0000              	GLOBAL _llabs
540   0000              	GLOBAL __lldivu__callee
541   0000              	GLOBAL __lldivu_
542   0000              	GLOBAL __lldiv__callee
543   0000              	GLOBAL __lldiv_
544   0000              	GLOBAL _atoll_callee
545   0000              	GLOBAL _atoll
546   0000              	GLOBAL _realloc_unlocked_callee
547   0000              	GLOBAL _realloc_unlocked
548   0000              	GLOBAL _malloc_unlocked_fastcall
549   0000              	GLOBAL _malloc_unlocked
550   0000              	GLOBAL _free_unlocked_fastcall
551   0000              	GLOBAL _free_unlocked
552   0000              	GLOBAL _calloc_unlocked_callee
553   0000              	GLOBAL _calloc_unlocked
554   0000              	GLOBAL _aligned_alloc_unlocked_callee
555   0000              	GLOBAL _aligned_alloc_unlocked
556   0000              	GLOBAL _realloc_callee
557   0000              	GLOBAL _realloc
558   0000              	GLOBAL _malloc_fastcall
559   0000              	GLOBAL _malloc
560   0000              	GLOBAL _free_fastcall
561   0000              	GLOBAL _free
562   0000              	GLOBAL _calloc_callee
563   0000              	GLOBAL _calloc
564   0000              	GLOBAL _aligned_alloc_callee
565   0000              	GLOBAL _aligned_alloc
566   0000              	GLOBAL _utoa_callee
567   0000              	GLOBAL _utoa
568   0000              	GLOBAL _ultoa_callee
569   0000              	GLOBAL _ultoa
570   0000              	GLOBAL _system_fastcall
571   0000              	GLOBAL _system
572   0000              	GLOBAL _strtoul_callee
573   0000              	GLOBAL _strtoul
574   0000              	GLOBAL _strtol_callee
575   0000              	GLOBAL _strtol
576   0000              	GLOBAL _strtof_callee
577   0000              	GLOBAL _strtof
578   0000              	GLOBAL _strtod_callee
579   0000              	GLOBAL _strtod
580   0000              	GLOBAL _srand_fastcall
581   0000              	GLOBAL _srand
582   0000              	GLOBAL _rand
583   0000              	GLOBAL _quick_exit_fastcall
584   0000              	GLOBAL _quick_exit
585   0000              	GLOBAL _qsort_callee
586   0000              	GLOBAL _qsort
587   0000              	GLOBAL _ltoa_callee
588   0000              	GLOBAL _ltoa
589   0000              	GLOBAL _labs_fastcall
590   0000              	GLOBAL _labs
591   0000              	GLOBAL _itoa_callee
592   0000              	GLOBAL _itoa
593   0000              	GLOBAL _ftoh_callee
594   0000              	GLOBAL _ftoh
595   0000              	GLOBAL _ftog_callee
596   0000              	GLOBAL _ftog
597   0000              	GLOBAL _ftoe_callee
598   0000              	GLOBAL _ftoe
599   0000              	GLOBAL _ftoa_callee
600   0000              	GLOBAL _ftoa
601   0000              	GLOBAL _exit_fastcall
602   0000              	GLOBAL _exit
603   0000              	GLOBAL _dtoh_callee
604   0000              	GLOBAL _dtoh
605   0000              	GLOBAL _dtog_callee
606   0000              	GLOBAL _dtog
607   0000              	GLOBAL _dtoe_callee
608   0000              	GLOBAL _dtoe
609   0000              	GLOBAL _dtoa_callee
610   0000              	GLOBAL _dtoa
611   0000              	GLOBAL _bsearch_callee
612   0000              	GLOBAL _bsearch
613   0000              	GLOBAL _atol_fastcall
614   0000              	GLOBAL _atol
615   0000              	GLOBAL _atoi_fastcall
616   0000              	GLOBAL _atoi
617   0000              	GLOBAL _atof_fastcall
618   0000              	GLOBAL _atof
619   0000              	GLOBAL _atexit_fastcall
620   0000              	GLOBAL _atexit
621   0000              	GLOBAL _at_quick_exit_fastcall
622   0000              	GLOBAL _at_quick_exit
623   0000              	GLOBAL _abs_fastcall
624   0000              	GLOBAL _abs
625   0000              	GLOBAL _abort
626   0000              	GLOBAL __strtou__callee
627   0000              	GLOBAL __strtou_
628   0000              	GLOBAL __strtoi__callee
629   0000              	GLOBAL __strtoi_
630   0000              	GLOBAL __random_uniform_xor_8__fastcall
631   0000              	GLOBAL __random_uniform_xor_8_
632   0000              	GLOBAL __random_uniform_xor_32__fastcall
633   0000              	GLOBAL __random_uniform_xor_32_
634   0000              	GLOBAL __random_uniform_cmwc_8__fastcall
635   0000              	GLOBAL __random_uniform_cmwc_8_
636   0000              	GLOBAL __shellsort__callee
637   0000              	GLOBAL __shellsort_
638   0000              	GLOBAL __quicksort__callee
639   0000              	GLOBAL __quicksort_
640   0000              	GLOBAL __insertion_sort__callee
641   0000              	GLOBAL __insertion_sort_
642   0000              	GLOBAL __ldivu__callee
643   0000              	GLOBAL __ldivu_
644   0000              	GLOBAL __ldiv__callee
645   0000              	GLOBAL __ldiv_
646   0000              	GLOBAL __divu__callee
647   0000              	GLOBAL __divu_
648   0000              	GLOBAL __div__callee
649   0000              	GLOBAL __div_
650   0000              	GLOBAL _ay_effect_20
651   0000              	GLOBAL _ay_effect_19
652   0000              	GLOBAL _ay_effect_18
653   0000              	GLOBAL _ay_effect_17
654   0000              	GLOBAL _ay_effect_16
655   0000              	GLOBAL _ay_effect_15
656   0000              	GLOBAL _ay_effect_14
657   0000              	GLOBAL _ay_effect_13
658   0000              	GLOBAL _ay_effect_12
659   0000              	GLOBAL _ay_effect_11
660   0000              	GLOBAL _ay_effect_10
661   0000              	GLOBAL _ay_effect_09
662   0000              	GLOBAL _ay_effect_08
663   0000              	GLOBAL _ay_effect_07
664   0000              	GLOBAL _ay_effect_06
665   0000              	GLOBAL _ay_effect_05
666   0000              	GLOBAL _ay_effect_04
667   0000              	GLOBAL _ay_effect_03
668   0000              	GLOBAL _ay_effect_02
669   0000              	GLOBAL _ay_effect_01
670   0000              	GLOBAL _pb_midi_phase_1
671   0000              	GLOBAL _pb_midi_title
672   0000              	GLOBAL _joynames
673   0000              	GLOBAL _initials
674   0000              	GLOBAL _hof
675   0000              	GLOBAL _score_osd_tile
676   0000              	GLOBAL _score_osd_time
677   0000              	GLOBAL _score_osd_col
678   0000              	GLOBAL _score_osd_lin
679   0000              	GLOBAL _phase_bonus_total
680   0000              	GLOBAL _phase_angry
681   0000              	GLOBAL _phase_curr
682   0000              	GLOBAL _phase_end
683   0000              	GLOBAL _phase_coins
684   0000              	GLOBAL _phase_pop
685   0000              	GLOBAL _phase_tot
686   0000              	GLOBAL _phase_left
687   0000              	GLOBAL _phase_quota
688   0000              	GLOBAL _phases
689   0000              	GLOBAL _spr_idx
690   0000              	GLOBAL _lvl_1
691   0000              	GLOBAL _sprite_speed_alt
692   0000              	GLOBAL _sprite_speed
693   0000              	GLOBAL _screen_ink
694   0000              	GLOBAL _screen_paper
695   0000              	GLOBAL _game_menu_sel
696   0000              	GLOBAL _game_type
697   0000              	GLOBAL _game_bonus
698   0000              	GLOBAL _spr_water_time
699   0000              	GLOBAL _spr_water_clear
700   0000              	GLOBAL _game_time_fireball_start
701   0000              	GLOBAL _game_time_flipped
702   0000              	GLOBAL _game_score_top
703   0000              	GLOBAL _game_lives_update
704   0000              	GLOBAL _game_lives
705   0000              	GLOBAL _game_over
706   0000              	GLOBAL _game_sound
707   0000              	GLOBAL _game_two_player
708   0000              	GLOBAL _game_brick_tile
709   0000              	GLOBAL _game_pow
710   0000              	GLOBAL _spr_count
711   0000              	GLOBAL _frame_loop_count
712   0000              	GLOBAL _col_time
713   0000              	GLOBAL _frame_time
714   0000              	GLOBAL _entry_time
715   0000              	GLOBAL _curr_time
716   0000              	GLOBAL _s_state
717   0000              	GLOBAL _attrib_hl
718   0000              	GLOBAL _attrib
719   0000              	GLOBAL _zx_val_asm
720   0000              	GLOBAL _enemies
721   0000              	GLOBAL _tmp_ui
722   0000              	GLOBAL _tmp_sc
723   0000              	GLOBAL _tmp_uc
724   0000              	GLOBAL _tmp1
725   0000              	GLOBAL _tmp0
726   0000              	GLOBAL _tmp
727   0000              	GLOBAL _index_d
728   0000              	GLOBAL _index3
729   0000              	GLOBAL _index2
730   0000              	GLOBAL _index1
731   0000              	GLOBAL _loop_count
732   0000              	GLOBAL _sprite_lin_inc_mul
733   0000              	GLOBAL _s_col1
734   0000              	GLOBAL _s_col0
735   0000              	GLOBAL _s_lin1
736   0000              	GLOBAL _s_lin0
737   0000              	GLOBAL _s_tile1
738   0000              	GLOBAL _s_tile0
739   0000              	GLOBAL _hit_count
740   0000              	GLOBAL _tile_offset_other_player
741   0000              	GLOBAL _tile_offset
742   0000              	GLOBAL _index_player
743   0000              	GLOBAL _sprite_other_player
744   0000              	GLOBAL _sprite
745   0000              	GLOBAL _player_joy
746   0000              	GLOBAL _player_next_extra
747   0000              	GLOBAL _player_score
748   0000              	GLOBAL _last_time
749   0000              	GLOBAL _sliding
750   0000              	GLOBAL _spr_timer_c
751   0000              	GLOBAL _spr_timer
752   0000              	GLOBAL _jump_lin
753   0000              	GLOBAL _player_jump_c
754   0000              	GLOBAL _hit_col
755   0000              	GLOBAL _hit_lin
756   0000              	GLOBAL _colint
757   0000              	GLOBAL _col
758   0000              	GLOBAL _lin
759   0000              	GLOBAL _tile
760   0000              	GLOBAL _state_a
761   0000              	GLOBAL _state
762   0000              	GLOBAL _class
763   0000              	GLOBAL _tbuffer
764   0000              	GLOBAL _dirs
765   0000              	GLOBAL _k2
766   0000              	GLOBAL _k1
767   0000              	GLOBAL _joyfunc2
768   0000              	GLOBAL _joyfunc1
769   0000              	GLOBAL _btiles
770   0000              	GLOBAL _spec128
771   0000              	GLOBAL _NIRVANAP_CHAR_TABLE
772   0000              	GLOBAL _NIRVANAP_WIDE_IMAGES
773   0000              	GLOBAL _NIRVANAP_TILE_IMAGES
774   0000              	GLOBAL _NIRVANAP_ISR_HOOK
775   0000              	GLOBAL _control_method
776   0000              	GLOBAL _hall_valids
777   0000              ;--------------------------------------------------------
778   0000              ; special function registers
779   0000              ;--------------------------------------------------------
780   0000              ;--------------------------------------------------------
781   0000              ; ram data
782   0000              ;--------------------------------------------------------
783   0000              	SECTION bss_compiler
784   0000              ;--------------------------------------------------------
785   0000              ; ram data
786   0000              ;--------------------------------------------------------
787   0000              
788   0000              IF 0
789   0000              
790   0000              ; .area _INITIALIZED removed by z88dk
791   0000              
792   0000              
793   0000              ENDIF
794   0000              
795   0000              ;--------------------------------------------------------
796   0000              ; absolute external ram data
797   0000              ;--------------------------------------------------------
798   0000              	SECTION IGNORE
799   0000              ;--------------------------------------------------------
800   0000              ; global & static initialisations
801   0000              ;--------------------------------------------------------
802   0000              	SECTION code_crt_init
803   0000              ;--------------------------------------------------------
804   0000              ; Home
805   0000              ;--------------------------------------------------------
806   0000              	SECTION IGNORE
807   0000              ;--------------------------------------------------------
808   0000              ; code
809   0000              ;--------------------------------------------------------
810   0000              	SECTION code_compiler
811   0000              ;	---------------------------------
812   0000              ; Function enemy_coin1
813   0000              ; ---------------------------------
814   0000              _enemy_coin1:
815   0000  3A 00 00    	ld	a,(_phase_left)
816   0003  B7          	or	a, a
817   0004  28 2C       	jr	Z,l_enemy_coin1_00107
818   0006  CD 61 0D    	call	_enemy_walk
819   0009  2A 00 00    	ld	hl,(_sprite)
820   000C  26 00       	ld	h,0x00
821   000E  01 00 00    	ld	bc,_lin
822   0011  09          	add	hl,bc
823   0012  7E          	ld	a,(hl)
824   0013  D6 98       	sub	a,0x98
825   0015  20 1B       	jr	NZ,l_enemy_coin1_00107
826   0017  3A 00 00    	ld	a,(_sprite)
827   001A  4F          	ld	c,a
828   001B  06 00       	ld	b,0x00
829   001D  21 00 00    	ld	hl,_col
830   0020  09          	add	hl,bc
831   0021  7E          	ld	a,(hl)
832   0022  4F          	ld	c,a
833   0023  D6 03       	sub	a,0x03
834   0025  28 05       	jr	Z,l_enemy_coin1_00101
835   0027  79          	ld	a,c
836   0028  D6 1B       	sub	a,0x1b
837   002A  20 06       	jr	NZ,l_enemy_coin1_00107
838   002C              l_enemy_coin1_00101:
839   002C  2A 00 00    	ld	hl,(_sprite)
840   002F  CD 00 00    	call	_spr_destroy
841   0032              l_enemy_coin1_00107:
842   0032  C9          	ret
843   0033              	SECTION code_compiler
844   0033              ;	---------------------------------
845   0033              ; Function enemy_coin2
846   0033              ; ---------------------------------
847   0033              _enemy_coin2:
848   0033  01 00 00    	ld	bc,_colint+0
849   0036  79          	ld	a,c
850   0037  21 00 00    	ld	hl,_sprite
851   003A  86          	add	a, (hl)
852   003B  5F          	ld	e,a
853   003C  78          	ld	a,b
854   003D  CE 00       	adc	a,0x00
855   003F  57          	ld	d,a
856   0040  1A          	ld	a,(de)
857   0041  3C          	inc	a
858   0042  12          	ld	(de),a
859   0043  79          	ld	a,c
860   0044  86          	add	a, (hl)
861   0045  4F          	ld	c,a
862   0046  78          	ld	a,b
863   0047  CE 00       	adc	a,0x00
864   0049  47          	ld	b,a
865   004A  0A          	ld	a,(bc)
866   004B  D6 03       	sub	a,0x03
867   004D  C0          	ret	NZ
868   004E  AF          	xor	a, a
869   004F  02          	ld	(bc),a
870   0050  C9          	ret
871   0051              	SECTION code_compiler
872   0051              ;	---------------------------------
873   0051              ; Function enemy_collition
874   0051              ; ---------------------------------
875   0051              _enemy_collition:
876   0051  CD 00 00    	call	___sdcc_enter_ix
877   0054  3B          	dec	sp
878   0055  21 00 00    	ld	hl,_enemies
879   0058  36 00       	ld	(hl),0x00
880   005A              l_enemy_collition_00113:
881   005A  CD 7F 01    	call	_enemy_collition_check
882   005D  7D          	ld	a,l
883   005E  B7          	or	a, a
884   005F  CA 70 01    	jp	Z,l_enemy_collition_00114
885   0062  3A 00 00    	ld	a,(_enemies)
886   0065  C6 00       	add	a,+((_state) & 0xFF)
887   0067  4F          	ld	c,a
888   0068  3E 00       	ld	a,+((_state) / 256)
889   006A  CE 00       	adc	a,0x00
890   006C  47          	ld	b,a
891   006D  0A          	ld	a,(bc)
892   006E  DD 77 FF    	ld	(ix-1),a
893   0071  CB 67       	bit	4,a
894   0073  C2 06 01    	jp	NZ,l_enemy_collition_00104
895   0076  21 00 00    	ld	hl,_s_state
896   0079  7E          	ld	a,(hl)
897   007A  E6 08       	and	a,0x08
898   007C  5F          	ld	e,a
899   007D  DD 7E FF    	ld	a,(ix-1)
900   0080  E6 08       	and	a,0x08
901   0082  57          	ld	d,a
902   0083  7B          	ld	a,e
903   0084  92          	sub	a, d
904   0085  CA 06 01    	jp	Z,l_enemy_collition_00104
905   0088  7E          	ld	a,(hl)
906   0089  E6 04       	and	a,0x04
907   008B  5F          	ld	e,a
908   008C  DD 7E FF    	ld	a,(ix-1)
909   008F  E6 04       	and	a,0x04
910   0091  57          	ld	d,a
911   0092  7B          	ld	a,e
912   0093  92          	sub	a, d
913   0094  28 70       	jr	Z,l_enemy_collition_00104
914   0096  2A 00 00    	ld	hl,(_sprite)
915   0099  26 00       	ld	h,0x00
916   009B  11 00 00    	ld	de,_class
917   009E  19          	add	hl,de
918   009F  7E          	ld	a,(hl)
919   00A0  D6 08       	sub	a,0x08
920   00A2  28 62       	jr	Z,l_enemy_collition_00104
921   00A4  DD 7E FF    	ld	a,(ix-1)
922   00A7  EE 04       	xor	a,0x04
923   00A9  02          	ld	(bc),a
924   00AA  2A 00 00    	ld	hl,(_enemies)
925   00AD  26 00       	ld	h,0x00
926   00AF  01 00 00    	ld	bc,_state
927   00B2  09          	add	hl,bc
928   00B3  7E          	ld	a,(hl)
929   00B4  EE 08       	xor	a,0x08
930   00B6  77          	ld	(hl),a
931   00B7  2A 00 00    	ld	hl,(_enemies)
932   00BA  26 00       	ld	h,0x00
933   00BC  01 00 00    	ld	bc,_class
934   00BF  09          	add	hl,bc
935   00C0  4E          	ld	c,(hl)
936   00C1  3E 06       	ld	a,0x06
937   00C3  91          	sub	a,c
938   00C4  38 40       	jr	C,l_enemy_collition_00104
939   00C6  3E 00       	ld	a,+((_state_a) & 0xFF)
940   00C8  21 00 00    	ld	hl,_enemies
941   00CB  86          	add	a, (hl)
942   00CC  4F          	ld	c,a
943   00CD  3E 00       	ld	a,+((_state_a) / 256)
944   00CF  CE 00       	adc	a,0x00
945   00D1  47          	ld	b,a
946   00D2  0A          	ld	a,(bc)
947   00D3  CB CF       	set	1, a
948   00D5  02          	ld	(bc),a
949   00D6  6E          	ld	l,(hl)
950   00D7  26 00       	ld	h,0x00
951   00D9  29          	add	hl,hl
952   00DA  01 00 00    	ld	bc,_spr_timer
953   00DD  09          	add	hl,bc
954   00DE  ED 5B 00 00 	ld	de,(_curr_time)
955   00E2  73          	ld	(hl),e
956   00E3  23          	inc	hl
957   00E4  72          	ld	(hl),d
958   00E5  3E 00       	ld	a,+((_tile) & 0xFF)
959   00E7  21 00 00    	ld	hl,_enemies
960   00EA  86          	add	a, (hl)
961   00EB  4F          	ld	c,a
962   00EC  3E 00       	ld	a,+((_tile) / 256)
963   00EE  CE 00       	adc	a,0x00
964   00F0  47          	ld	b,a
965   00F1  6E          	ld	l,(hl)
966   00F2  C5          	push	bc
967   00F3  CD 00 00    	call	_spr_tile
968   00F6  C1          	pop	bc
969   00F7  7D          	ld	a, l
970   00F8  02          	ld	(bc),a
971   00F9  3A 00 00    	ld	a,(_enemies)
972   00FC  C6 00       	add	a,+((_colint) & 0xFF)
973   00FE  4F          	ld	c,a
974   00FF  3E 00       	ld	a,+((_colint) / 256)
975   0101  CE 00       	adc	a,0x00
976   0103  47          	ld	b,a
977   0104  AF          	xor	a, a
978   0105  02          	ld	(bc),a
979   0106              l_enemy_collition_00104:
980   0106  21 00 00    	ld	hl,_s_state
981   0109  7E          	ld	a,(hl)
982   010A  EE 0C       	xor	a,+(0x04^0x08)
983   010C  77          	ld	(hl),a
984   010D  2A 00 00    	ld	hl,(_sprite)
985   0110  26 00       	ld	h,0x00
986   0112  01 00 00    	ld	bc,_class
987   0115  09          	add	hl,bc
988   0116  4E          	ld	c,(hl)
989   0117  3E 06       	ld	a,0x06
990   0119  91          	sub	a,c
991   011A  38 3E       	jr	C,l_enemy_collition_00109
992   011C  3E 00       	ld	a,+((_state_a) & 0xFF)
993   011E  21 00 00    	ld	hl,_sprite
994   0121  86          	add	a, (hl)
995   0122  4F          	ld	c,a
996   0123  3E 00       	ld	a,+((_state_a) / 256)
997   0125  CE 00       	adc	a,0x00
998   0127  47          	ld	b,a
999   0128  0A          	ld	a,(bc)
1000  0129  CB CF       	set	1, a
1001  012B  02          	ld	(bc),a
1002  012C  3E 00       	ld	a,+((_state) & 0xFF)
1003  012E  86          	add	a, (hl)
1004  012F  4F          	ld	c,a
1005  0130  3E 00       	ld	a,+((_state) / 256)
1006  0132  CE 00       	adc	a,0x00
1007  0134  47          	ld	b,a
1008  0135  3A 00 00    	ld	a,(_s_state)
1009  0138  02          	ld	(bc),a
1010  0139  3E 00       	ld	a,+((_tile) & 0xFF)
1011  013B  21 00 00    	ld	hl,_sprite
1012  013E  86          	add	a, (hl)
1013  013F  4F          	ld	c,a
1014  0140  3E 00       	ld	a,+((_tile) / 256)
1015  0142  CE 00       	adc	a,0x00
1016  0144  47          	ld	b,a
1017  0145  6E          	ld	l,(hl)
1018  0146  C5          	push	bc
1019  0147  CD 00 00    	call	_spr_tile
1020  014A  C1          	pop	bc
1021  014B  7D          	ld	a, l
1022  014C  02          	ld	(bc),a
1023  014D  3A 00 00    	ld	a,(_sprite)
1024  0150  C6 00       	add	a,+((_colint) & 0xFF)
1025  0152  4F          	ld	c,a
1026  0153  3E 00       	ld	a,+((_colint) / 256)
1027  0155  CE 00       	adc	a,0x00
1028  0157  47          	ld	b,a
1029  0158  AF          	xor	a, a
1030  0159  02          	ld	(bc),a
1031  015A              l_enemy_collition_00109:
1032  015A  2A 00 00    	ld	hl,(_sprite)
1033  015D  26 00       	ld	h,0x00
1034  015F  29          	add	hl,hl
1035  0160  01 00 00    	ld	bc,_spr_timer
1036  0163  09          	add	hl,bc
1037  0164  ED 5B 00 00 	ld	de,(_curr_time)
1038  0168  73          	ld	(hl),e
1039  0169  23          	inc	hl
1040  016A  72          	ld	(hl),d
1041  016B  21 00 00    	ld	hl,_enemies
1042  016E  36 06       	ld	(hl),0x06
1043  0170              l_enemy_collition_00114:
1044  0170  21 00 00    	ld	hl,_enemies
1045  0173  7E          	ld	a,(hl)
1046  0174  3C          	inc	a
1047  0175  77          	ld	(hl),a
1048  0176  D6 06       	sub	a,0x06
1049  0178  DA 5A 00    	jp	C,l_enemy_collition_00113
1050  017B  33          	inc	sp
1051  017C  DD E1       	pop	ix
1052  017E  C9          	ret
1053  017F              	SECTION code_compiler
1054  017F              ;	---------------------------------
1055  017F              ; Function enemy_collition_check
1056  017F              ; ---------------------------------
1057  017F              _enemy_collition_check:
1058  017F  2A 00 00    	ld	hl,(_enemies)
1059  0182  26 00       	ld	h,0x00
1060  0184  01 00 00    	ld	bc,_class
1061  0187  09          	add	hl,bc
1062  0188  7E          	ld	a,(hl)
1063  0189  4F          	ld	c,a
1064  018A  B7          	or	a,a
1065  018B  20 04       	jr	NZ,l_enemy_collition_check_00102
1066  018D  6F          	ld	l,a
1067  018E  C3 66 02    	jp	l_enemy_collition_check_00125
1068  0191              l_enemy_collition_check_00102:
1069  0191  3E 09       	ld	a,0x09
1070  0193  91          	sub	a, c
1071  0194  30 05       	jr	NC,l_enemy_collition_check_00104
1072  0196  2E 00       	ld	l,0x00
1073  0198  C3 66 02    	jp	l_enemy_collition_check_00125
1074  019B              l_enemy_collition_check_00104:
1075  019B  3A 00 00    	ld	a,(_enemies)
1076  019E  21 00 00    	ld	hl,_sprite
1077  01A1  96          	sub	a,(hl)
1078  01A2  20 04       	jr	NZ,l_enemy_collition_check_00106
1079  01A4  6F          	ld	l,a
1080  01A5  C3 66 02    	jp	l_enemy_collition_check_00125
1081  01A8              l_enemy_collition_check_00106:
1082  01A8  3A 00 00    	ld	a,(_sprite)
1083  01AB  C6 00       	add	a,+((_state) & 0xFF)
1084  01AD  4F          	ld	c,a
1085  01AE  3E 00       	ld	a,+((_state) / 256)
1086  01B0  CE 00       	adc	a,0x00
1087  01B2  47          	ld	b,a
1088  01B3  0A          	ld	a,(bc)
1089  01B4  CB 67       	bit	4, a
1090  01B6  28 05       	jr	Z,l_enemy_collition_check_00108
1091  01B8  2E 00       	ld	l,0x00
1092  01BA  C3 66 02    	jp	l_enemy_collition_check_00125
1093  01BD              l_enemy_collition_check_00108:
1094  01BD  CB 6F       	bit	5, a
1095  01BF  28 05       	jr	Z,l_enemy_collition_check_00110
1096  01C1  2E 00       	ld	l,0x00
1097  01C3  C3 66 02    	jp	l_enemy_collition_check_00125
1098  01C6              l_enemy_collition_check_00110:
1099  01C6  3A 00 00    	ld	a,(_sprite)
1100  01C9  C6 00       	add	a,+((_state_a) & 0xFF)
1101  01CB  4F          	ld	c,a
1102  01CC  3E 00       	ld	a,+((_state_a) / 256)
1103  01CE  CE 00       	adc	a,0x00
1104  01D0  47          	ld	b,a
1105  01D1  0A          	ld	a,(bc)
1106  01D2  CB 4F       	bit	1, a
1107  01D4  28 05       	jr	Z,l_enemy_collition_check_00112
1108  01D6  2E 00       	ld	l,0x00
1109  01D8  C3 66 02    	jp	l_enemy_collition_check_00125
1110  01DB              l_enemy_collition_check_00112:
1111  01DB  3A 00 00    	ld	a,(_enemies)
1112  01DE  C6 00       	add	a,+((_state) & 0xFF)
1113  01E0  4F          	ld	c,a
1114  01E1  3E 00       	ld	a,+((_state) / 256)
1115  01E3  CE 00       	adc	a,0x00
1116  01E5  47          	ld	b,a
1117  01E6  0A          	ld	a,(bc)
1118  01E7  CB 6F       	bit	5, a
1119  01E9  28 05       	jr	Z,l_enemy_collition_check_00114
1120  01EB  2E 00       	ld	l,0x00
1121  01ED  C3 66 02    	jp	l_enemy_collition_check_00125
1122  01F0              l_enemy_collition_check_00114:
1123  01F0  CB 4F       	bit	1, a
1124  01F2  28 04       	jr	Z,l_enemy_collition_check_00116
1125  01F4  2E 00       	ld	l,0x00
1126  01F6  18 6E       	jr	l_enemy_collition_check_00125
1127  01F8              l_enemy_collition_check_00116:
1128  01F8  01 00 00    	ld	bc,_lin+0
1129  01FB  2A 00 00    	ld	hl,(_enemies)
1130  01FE  26 00       	ld	h,0x00
1131  0200  09          	add	hl,bc
1132  0201  6E          	ld	l, (hl)
1133  0202  26 00       	ld	h,0x00
1134  0204  EB          	ex	de,hl
1135  0205  2A 00 00    	ld	hl,(_sprite)
1136  0208  62          	ld	h,d
1137  0209  09          	add	hl,bc
1138  020A  4E          	ld	c, (hl)
1139  020B  AF          	xor	a,a
1140  020C  47          	ld	b,a
1141  020D  EB          	ex	de,hl
1142  020E  ED 42       	sbc	hl,bc
1143  0210  CD 00 00    	call	_abs_fastcall
1144  0213  22 00 00    	ld	(_tmp_ui),hl
1145  0216  7D          	ld	a,l
1146  0217  D6 10       	sub	a,0x10
1147  0219  7C          	ld	a,h
1148  021A  DE 00       	sbc	a,0x00
1149  021C  38 04       	jr	C,l_enemy_collition_check_00118
1150  021E  2E 00       	ld	l,0x00
1151  0220  18 44       	jr	l_enemy_collition_check_00125
1152  0222              l_enemy_collition_check_00118:
1153  0222  01 00 00    	ld	bc,_col+0
1154  0225  2A 00 00    	ld	hl,(_sprite)
1155  0228  26 00       	ld	h,0x00
1156  022A  09          	add	hl,bc
1157  022B  6E          	ld	l, (hl)
1158  022C  EB          	ex	de,hl
1159  022D  2A 00 00    	ld	hl,(_enemies)
1160  0230  26 00       	ld	h,0x00
1161  0232  09          	add	hl,bc
1162  0233  4E          	ld	c, (hl)
1163  0234  7B          	ld	a,e
1164  0235  91          	sub	a, c
1165  0236  32 00 00    	ld	(_tmp_sc),a
1166  0239  3A 00 00    	ld	a,(_sprite)
1167  023C  C6 00       	add	a,+((_state) & 0xFF)
1168  023E  4F          	ld	c,a
1169  023F  3E 00       	ld	a,+((_state) / 256)
1170  0241  CE 00       	adc	a,0x00
1171  0243  47          	ld	b,a
1172  0244  3A 00 00    	ld	a,(_tmp_sc)
1173  0247  D6 FE       	sub	a,0xfe
1174  0249  20 09       	jr	NZ,l_enemy_collition_check_00120
1175  024B  0A          	ld	a,(bc)
1176  024C  CB 57       	bit	2, a
1177  024E  28 04       	jr	Z,l_enemy_collition_check_00120
1178  0250  2E 01       	ld	l,0x01
1179  0252  18 12       	jr	l_enemy_collition_check_00125
1180  0254              l_enemy_collition_check_00120:
1181  0254  3A 00 00    	ld	a,(_tmp_sc)
1182  0257  D6 02       	sub	a,0x02
1183  0259  20 09       	jr	NZ,l_enemy_collition_check_00123
1184  025B  0A          	ld	a,(bc)
1185  025C  CB 5F       	bit	3, a
1186  025E  28 04       	jr	Z,l_enemy_collition_check_00123
1187  0260  2E 01       	ld	l,0x01
1188  0262  18 02       	jr	l_enemy_collition_check_00125
1189  0264              l_enemy_collition_check_00123:
1190  0264  2E 00       	ld	l,0x00
1191  0266              l_enemy_collition_check_00125:
1192  0266  C9          	ret
1193  0267              	SECTION code_compiler
1194  0267              ;	---------------------------------
1195  0267              ; Function enemy_hit
1196  0267              ; ---------------------------------
1197  0267              _enemy_hit:
1198  0267  76          	halt
1199  0268  2A 00 00    	ld	hl,(_enemies)
1200  026B  26 00       	ld	h,0x00
1201  026D  5D          	ld	e,l
1202  026E  01 00 00    	ld	bc,_col
1203  0271  09          	add	hl,bc
1204  0272  46          	ld	b,(hl)
1205  0273  16 00       	ld	d,0x00
1206  0275  21 00 00    	ld	hl,_lin
1207  0278  19          	add	hl,de
1208  0279  4E          	ld	c, (hl)
1209  027A  C5          	push	bc
1210  027B  AF          	xor	a, a
1211  027C  F5          	push	af
1212  027D  33          	inc	sp
1213  027E  CD 00 00    	call	_NIRVANAP_fillT_callee
1214  0281  2A 00 00    	ld	hl,(_enemies)
1215  0284  26 00       	ld	h,0x00
1216  0286  01 00 00    	ld	bc,_lin
1217  0289  09          	add	hl,bc
1218  028A  7E          	ld	a,(hl)
1219  028B  C6 FC       	add	a,0xfc
1220  028D  77          	ld	(hl),a
1221  028E  3E 00       	ld	a,+((_col) & 0xFF)
1222  0290  21 00 00    	ld	hl,_enemies
1223  0293  86          	add	a, (hl)
1224  0294  4F          	ld	c,a
1225  0295  3E 00       	ld	a,+((_col) / 256)
1226  0297  CE 00       	adc	a,0x00
1227  0299  47          	ld	b,a
1228  029A  0A          	ld	a,(bc)
1229  029B  4F          	ld	c,a
1230  029C  3E 00       	ld	a,+((_lin) & 0xFF)
1231  029E  86          	add	a, (hl)
1232  029F  5F          	ld	e,a
1233  02A0  3E 00       	ld	a,+((_lin) / 256)
1234  02A2  CE 00       	adc	a,0x00
1235  02A4  57          	ld	d,a
1236  02A5  1A          	ld	a,(de)
1237  02A6  47          	ld	b,a
1238  02A7  3E 00       	ld	a,+((_tile) & 0xFF)
1239  02A9  86          	add	a, (hl)
1240  02AA  5F          	ld	e,a
1241  02AB  3E 00       	ld	a,+((_tile) / 256)
1242  02AD  CE 00       	adc	a,0x00
1243  02AF  57          	ld	d,a
1244  02B0  1A          	ld	a,(de)
1245  02B1  57          	ld	d,a
1246  02B2  79          	ld	a,c
1247  02B3  F5          	push	af
1248  02B4  33          	inc	sp
1249  02B5  4A          	ld	c, d
1250  02B6  7E          	ld	a,(hl)
1251  02B7  C5          	push	bc
1252  02B8  F5          	push	af
1253  02B9  33          	inc	sp
1254  02BA  CD 00 00    	call	_NIRVANAP_spriteT_callee
1255  02BD  2A 00 00    	ld	hl,(_enemies)
1256  02C0  26 00       	ld	h,0x00
1257  02C2  01 00 00    	ld	bc,_state_a
1258  02C5  09          	add	hl,bc
1259  02C6  7E          	ld	a,(hl)
1260  02C7  E6 FD       	and	a,0xfd
1261  02C9  77          	ld	(hl),a
1262  02CA  01 00 00    	ld	bc,_spr_timer+0
1263  02CD  2A 00 00    	ld	hl,(_enemies)
1264  02D0  26 00       	ld	h,0x00
1265  02D2  29          	add	hl, hl
1266  02D3  09          	add	hl,bc
1267  02D4  ED 5B 00 00 	ld	de,(_curr_time)
1268  02D8  73          	ld	(hl),e
1269  02D9  23          	inc	hl
1270  02DA  72          	ld	(hl),d
1271  02DB  3A 00 00    	ld	a,(_enemies)
1272  02DE  C6 00       	add	a,+((_class) & 0xFF)
1273  02E0  4F          	ld	c,a
1274  02E1  3E 00       	ld	a,+((_class) / 256)
1275  02E3  CE 00       	adc	a,0x00
1276  02E5  47          	ld	b,a
1277  02E6  0A          	ld	a,(bc)
1278  02E7  5F          	ld	e,a
1279  02E8  D6 01       	sub	a,0x01
1280  02EA  DA 8A 03    	jp	C,l_enemy_hit_00113
1281  02ED  3E 0B       	ld	a,0x0b
1282  02EF  93          	sub	a, e
1283  02F0  DA 8A 03    	jp	C,l_enemy_hit_00113
1284  02F3  1D          	dec	e
1285  02F4  16 00       	ld	d,0x00
1286  02F6  21 FD 02    	ld	hl,l_enemy_hit_00123
1287  02F9  19          	add	hl,de
1288  02FA  19          	add	hl,de
1289  02FB  19          	add	hl,de
1290  02FC  E9          	jp	(hl)
1291  02FD              l_enemy_hit_00123:
1292  02FD  C3 1E 03    	jp	l_enemy_hit_00101
1293  0300  C3 26 03    	jp	l_enemy_hit_00102
1294  0303  C3 2E 03    	jp	l_enemy_hit_00103
1295  0306  C3 36 03    	jp	l_enemy_hit_00104
1296  0309  C3 3E 03    	jp	l_enemy_hit_00105
1297  030C  C3 46 03    	jp	l_enemy_hit_00106
1298  030F  C3 56 03    	jp	l_enemy_hit_00108
1299  0312  C3 62 03    	jp	l_enemy_hit_00109
1300  0315  C3 4E 03    	jp	l_enemy_hit_00107
1301  0318  C3 74 03    	jp	l_enemy_hit_00110
1302  031B  C3 80 03    	jp	l_enemy_hit_00111
1303  031E              l_enemy_hit_00101:
1304  031E  21 30 00    	ld	hl,0x0030
1305  0321  CD 76 04    	call	_enemy_flip
1306  0324  18 64       	jr	l_enemy_hit_00113
1307  0326              l_enemy_hit_00102:
1308  0326  21 3C 00    	ld	hl,0x003c
1309  0329  CD 76 04    	call	_enemy_flip
1310  032C  18 5C       	jr	l_enemy_hit_00113
1311  032E              l_enemy_hit_00103:
1312  032E  21 48 00    	ld	hl,0x0048
1313  0331  CD 76 04    	call	_enemy_flip
1314  0334  18 54       	jr	l_enemy_hit_00113
1315  0336              l_enemy_hit_00104:
1316  0336  21 54 00    	ld	hl,0x0054
1317  0339  CD 5F 05    	call	_enemy_flip_sidestepper
1318  033C  18 4C       	jr	l_enemy_hit_00113
1319  033E              l_enemy_hit_00105:
1320  033E  21 60 00    	ld	hl,0x0060
1321  0341  CD 5F 05    	call	_enemy_flip_sidestepper
1322  0344  18 44       	jr	l_enemy_hit_00113
1323  0346              l_enemy_hit_00106:
1324  0346  21 6C 00    	ld	hl,0x006c
1325  0349  CD 5F 05    	call	_enemy_flip_sidestepper
1326  034C  18 3C       	jr	l_enemy_hit_00113
1327  034E              l_enemy_hit_00107:
1328  034E  21 78 00    	ld	hl,0x0078
1329  0351  CD 76 04    	call	_enemy_flip
1330  0354  18 34       	jr	l_enemy_hit_00113
1331  0356              l_enemy_hit_00108:
1332  0356  2A 00 00    	ld	hl,(_enemies)
1333  0359  26 32       	ld	h,0x32
1334  035B  E5          	push	hl
1335  035C  CD 00 00    	call	_player_coin
1336  035F  F1          	pop	af
1337  0360  18 28       	jr	l_enemy_hit_00113
1338  0362              l_enemy_hit_00109:
1339  0362  21 00 00    	ld	hl,_ay_effect_10
1340  0365  CD 00 00    	call	_ay_fx_play
1341  0368  2A 00 00    	ld	hl,(_enemies)
1342  036B  26 50       	ld	h,0x50
1343  036D  E5          	push	hl
1344  036E  CD 00 00    	call	_player_coin
1345  0371  F1          	pop	af
1346  0372  18 16       	jr	l_enemy_hit_00113
1347  0374              l_enemy_hit_00110:
1348  0374  2A 00 00    	ld	hl,(_enemies)
1349  0377  26 64       	ld	h,0x64
1350  0379  E5          	push	hl
1351  037A  CD 00 00    	call	_player_coin
1352  037D  F1          	pop	af
1353  037E  18 0A       	jr	l_enemy_hit_00113
1354  0380              l_enemy_hit_00111:
1355  0380  2A 00 00    	ld	hl,(_enemies)
1356  0383  26 14       	ld	h,0x14
1357  0385  E5          	push	hl
1358  0386  CD 00 00    	call	_player_coin
1359  0389  F1          	pop	af
1360  038A              l_enemy_hit_00113:
1361  038A  C9          	ret
1362  038B              	SECTION code_compiler
1363  038B              ;	---------------------------------
1364  038B              ; Function enemy_flip_change_dir
1365  038B              ; ---------------------------------
1366  038B              _enemy_flip_change_dir:
1367  038B  3A 00 00    	ld	a,(_enemies)
1368  038E  C6 00       	add	a,+((_state) & 0xFF)
1369  0390  4D          	ld	c,l
1370  0391  5F          	ld	e,a
1371  0392  3E 00       	ld	a,+((_state) / 256)
1372  0394  CE 00       	adc	a,0x00
1373  0396  57          	ld	d,a
1374  0397  1A          	ld	a,(de)
1375  0398  CB 57       	bit	2, a
1376  039A  28 1F       	jr	Z,l_enemy_flip_change_dir_00102
1377  039C  2A 00 00    	ld	hl,(_enemies)
1378  039F  26 00       	ld	h,0x00
1379  03A1  11 00 00    	ld	de,_state_a
1380  03A4  19          	add	hl,de
1381  03A5  7E          	ld	a,(hl)
1382  03A6  EB          	ex	de,hl
1383  03A7  21 00 00    	ld	hl,_enemies
1384  03AA  CB E7       	set	4, a
1385  03AC  12          	ld	(de),a
1386  03AD  5E          	ld	e,(hl)
1387  03AE  16 00       	ld	d,0x00
1388  03B0  21 00 00    	ld	hl,_state_a
1389  03B3  19          	add	hl,de
1390  03B4  7E          	ld	a,(hl)
1391  03B5  EB          	ex	de,hl
1392  03B6  E6 F7       	and	a,0xf7
1393  03B8  12          	ld	(de),a
1394  03B9  18 1D       	jr	l_enemy_flip_change_dir_00103
1395  03BB              l_enemy_flip_change_dir_00102:
1396  03BB  2A 00 00    	ld	hl,(_enemies)
1397  03BE  26 00       	ld	h,0x00
1398  03C0  11 00 00    	ld	de,_state_a
1399  03C3  19          	add	hl,de
1400  03C4  7E          	ld	a,(hl)
1401  03C5  EB          	ex	de,hl
1402  03C6  21 00 00    	ld	hl,_enemies
1403  03C9  CB E7       	set	4, a
1404  03CB  12          	ld	(de),a
1405  03CC  5E          	ld	e,(hl)
1406  03CD  16 00       	ld	d,0x00
1407  03CF  21 00 00    	ld	hl,_state_a
1408  03D2  19          	add	hl,de
1409  03D3  7E          	ld	a,(hl)
1410  03D4  EB          	ex	de,hl
1411  03D5  E6 F7       	and	a,0xf7
1412  03D7  12          	ld	(de),a
1413  03D8              l_enemy_flip_change_dir_00103:
1414  03D8  2A 00 00    	ld	hl,(_sprite)
1415  03DB  26 00       	ld	h,0x00
1416  03DD  11 00 00    	ld	de,_col
1417  03E0  19          	add	hl,de
1418  03E1  46          	ld	b, (hl)
1419  03E2  2A 00 00    	ld	hl,(_enemies)
1420  03E5  26 00       	ld	h,0x00
1421  03E7  11 00 00    	ld	de,_col
1422  03EA  19          	add	hl,de
1423  03EB  7E          	ld	a,(hl)
1424  03EC  90          	sub	a,b
1425  03ED  30 1D       	jr	NC,l_enemy_flip_change_dir_00105
1426  03EF  2A 00 00    	ld	hl,(_enemies)
1427  03F2  26 00       	ld	h,0x00
1428  03F4  11 00 00    	ld	de,_state
1429  03F7  19          	add	hl,de
1430  03F8  7E          	ld	a,(hl)
1431  03F9  EB          	ex	de,hl
1432  03FA  21 00 00    	ld	hl,_enemies
1433  03FD  CB DF       	set	3, a
1434  03FF  12          	ld	(de),a
1435  0400  5E          	ld	e,(hl)
1436  0401  16 00       	ld	d,0x00
1437  0403  21 00 00    	ld	hl,_state
1438  0406  19          	add	hl,de
1439  0407  7E          	ld	a,(hl)
1440  0408  EB          	ex	de,hl
1441  0409  E6 FB       	and	a,0xfb
1442  040B  12          	ld	(de),a
1443  040C              l_enemy_flip_change_dir_00105:
1444  040C  2A 00 00    	ld	hl,(_sprite)
1445  040F  26 00       	ld	h,0x00
1446  0411  11 00 00    	ld	de,_col
1447  0414  19          	add	hl,de
1448  0415  46          	ld	b, (hl)
1449  0416  2A 00 00    	ld	hl,(_enemies)
1450  0419  26 00       	ld	h,0x00
1451  041B  11 00 00    	ld	de,_col
1452  041E  19          	add	hl,de
1453  041F  5E          	ld	e, (hl)
1454  0420  78          	ld	a,b
1455  0421  93          	sub	a,e
1456  0422  30 1D       	jr	NC,l_enemy_flip_change_dir_00107
1457  0424  2A 00 00    	ld	hl,(_enemies)
1458  0427  26 00       	ld	h,0x00
1459  0429  11 00 00    	ld	de,_state
1460  042C  19          	add	hl,de
1461  042D  7E          	ld	a,(hl)
1462  042E  EB          	ex	de,hl
1463  042F  21 00 00    	ld	hl,_enemies
1464  0432  CB D7       	set	2, a
1465  0434  12          	ld	(de),a
1466  0435  5E          	ld	e,(hl)
1467  0436  16 00       	ld	d,0x00
1468  0438  21 00 00    	ld	hl,_state
1469  043B  19          	add	hl,de
1470  043C  7E          	ld	a,(hl)
1471  043D  EB          	ex	de,hl
1472  043E  E6 F7       	and	a,0xf7
1473  0440  12          	ld	(de),a
1474  0441              l_enemy_flip_change_dir_00107:
1475  0441  79          	ld	a,c
1476  0442  B7          	or	a, a
1477  0443  C0          	ret	NZ
1478  0444  2A 00 00    	ld	hl,(_sprite)
1479  0447  26 00       	ld	h,0x00
1480  0449  01 00 00    	ld	bc,_col
1481  044C  09          	add	hl,bc
1482  044D  4E          	ld	c,(hl)
1483  044E  2A 00 00    	ld	hl,(_enemies)
1484  0451  26 00       	ld	h,0x00
1485  0453  11 00 00    	ld	de,_col
1486  0456  19          	add	hl,de
1487  0457  46          	ld	b, (hl)
1488  0458  79          	ld	a,c
1489  0459  90          	sub	a,b
1490  045A  C0          	ret	NZ
1491  045B  2A 00 00    	ld	hl,(_enemies)
1492  045E  26 00       	ld	h,0x00
1493  0460  01 00 00    	ld	bc,_state
1494  0463  09          	add	hl,bc
1495  0464  7E          	ld	a,(hl)
1496  0465  E6 F7       	and	a,0xf7
1497  0467  77          	ld	(hl),a
1498  0468  2A 00 00    	ld	hl,(_enemies)
1499  046B  26 00       	ld	h,0x00
1500  046D  01 00 00    	ld	bc,_state
1501  0470  09          	add	hl,bc
1502  0471  7E          	ld	a,(hl)
1503  0472  E6 FB       	and	a,0xfb
1504  0474  77          	ld	(hl),a
1505  0475  C9          	ret
1506  0476              	SECTION code_compiler
1507  0476              ;	---------------------------------
1508  0476              ; Function enemy_flip
1509  0476              ; ---------------------------------
1510  0476              _enemy_flip:
1511  0476  CD 00 00    	call	___sdcc_enter_ix
1512  0479  F5          	push	af
1513  047A  3B          	dec	sp
1514  047B  DD 75 FE    	ld	(ix-2),l
1515  047E  DD 74 FF    	ld	(ix-1),h
1516  0481  01 00 00    	ld	bc,_spr_timer+0
1517  0484  2A 00 00    	ld	hl,(_enemies)
1518  0487  26 00       	ld	h,0x00
1519  0489  29          	add	hl, hl
1520  048A  09          	add	hl,bc
1521  048B  ED 5B 00 00 	ld	de,(_curr_time)
1522  048F  73          	ld	(hl),e
1523  0490  23          	inc	hl
1524  0491  72          	ld	(hl),d
1525  0492  3E 00       	ld	a,+((_state) & 0xFF)
1526  0494  21 00 00    	ld	hl,_enemies
1527  0497  86          	add	a, (hl)
1528  0498  4F          	ld	c,a
1529  0499  3E 00       	ld	a,+((_state) / 256)
1530  049B  CE 00       	adc	a,0x00
1531  049D  47          	ld	b,a
1532  049E  0A          	ld	a,(bc)
1533  049F  CB C7       	set	0, a
1534  04A1  02          	ld	(bc),a
1535  04A2  3E 00       	ld	a,+((_state) & 0xFF)
1536  04A4  86          	add	a, (hl)
1537  04A5  4F          	ld	c,a
1538  04A6  3E 00       	ld	a,+((_state) / 256)
1539  04A8  CE 00       	adc	a,0x00
1540  04AA  47          	ld	b,a
1541  04AB  0A          	ld	a,(bc)
1542  04AC  E6 FD       	and	a,0xfd
1543  04AE  02          	ld	(bc),a
1544  04AF  3E 00       	ld	a,+((_state) & 0xFF)
1545  04B1  86          	add	a, (hl)
1546  04B2  4F          	ld	c,a
1547  04B3  3E 00       	ld	a,+((_state) / 256)
1548  04B5  CE 00       	adc	a,0x00
1549  04B7  47          	ld	b,a
1550  04B8  0A          	ld	a,(bc)
1551  04B9  EE 10       	xor	a,0x10
1552  04BB  02          	ld	(bc),a
1553  04BC  3E 00       	ld	a,+((_state) & 0xFF)
1554  04BE  86          	add	a, (hl)
1555  04BF  4F          	ld	c,a
1556  04C0  3E 00       	ld	a,+((_state) / 256)
1557  04C2  CE 00       	adc	a,0x00
1558  04C4  47          	ld	b,a
1559  04C5  0A          	ld	a,(bc)
1560  04C6  E6 7F       	and	a,0x7f
1561  04C8  02          	ld	(bc),a
1562  04C9  3E 00       	ld	a,+((_jump_lin) & 0xFF)
1563  04CB  86          	add	a, (hl)
1564  04CC  4F          	ld	c,a
1565  04CD  3E 00       	ld	a,+((_jump_lin) / 256)
1566  04CF  CE 00       	adc	a,0x00
1567  04D1  47          	ld	b,a
1568  04D2  3E 00       	ld	a,+((_lin) & 0xFF)
1569  04D4  86          	add	a, (hl)
1570  04D5  5F          	ld	e,a
1571  04D6  3E 00       	ld	a,+((_lin) / 256)
1572  04D8  CE 00       	adc	a,0x00
1573  04DA  57          	ld	d,a
1574  04DB  1A          	ld	a,(de)
1575  04DC  02          	ld	(bc),a
1576  04DD  5E          	ld	e,(hl)
1577  04DE  16 00       	ld	d,0x00
1578  04E0  21 00 00    	ld	hl,_state
1579  04E3  19          	add	hl,de
1580  04E4  7E          	ld	a,(hl)
1581  04E5  EB          	ex	de,hl
1582  04E6  DD 77 FD    	ld	(ix-3),a
1583  04E9  CB 67       	bit	4,a
1584  04EB  28 24       	jr	Z,l_enemy_flip_00105
1585  04ED  21 00 00    	ld	hl,_ay_effect_02
1586  04F0  CD 00 00    	call	_ay_fx_play
1587  04F3  2E 00       	ld	l,0x00
1588  04F5  CD 8B 03    	call	_enemy_flip_change_dir
1589  04F8  3A 00 00    	ld	a,(_enemies)
1590  04FB  C6 00       	add	a,+((_tile) & 0xFF)
1591  04FD  4F          	ld	c,a
1592  04FE  3E 00       	ld	a,+((_tile) / 256)
1593  0500  CE 00       	adc	a,0x00
1594  0502  47          	ld	b,a
1595  0503  DD 7E FE    	ld	a,(ix-2)
1596  0506  C6 06       	add	a,0x06
1597  0508  02          	ld	(bc),a
1598  0509  21 01 00    	ld	hl,0x0001
1599  050C  CD 00 00    	call	_player_score_add
1600  050F  18 49       	jr	l_enemy_flip_00107
1601  0511              l_enemy_flip_00105:
1602  0511  2A 00 00    	ld	hl,(_enemies)
1603  0514  26 00       	ld	h,0x00
1604  0516  01 00 00    	ld	bc,_state_a
1605  0519  09          	add	hl,bc
1606  051A  4E          	ld	c,(hl)
1607  051B  DD 7E FD    	ld	a,(ix-3)
1608  051E  CB D7       	set	2, a
1609  0520  CB 61       	bit	4, c
1610  0522  28 12       	jr	Z,l_enemy_flip_00102
1611  0524  12          	ld	(de),a
1612  0525  3A 00 00    	ld	a,(_enemies)
1613  0528  C6 00       	add	a,+((_state) & 0xFF)
1614  052A  4F          	ld	c,a
1615  052B  3E 00       	ld	a,+((_state) / 256)
1616  052D  CE 00       	adc	a,0x00
1617  052F  47          	ld	b,a
1618  0530  0A          	ld	a,(bc)
1619  0531  E6 F7       	and	a,0xf7
1620  0533  02          	ld	(bc),a
1621  0534  18 10       	jr	l_enemy_flip_00103
1622  0536              l_enemy_flip_00102:
1623  0536  12          	ld	(de),a
1624  0537  3A 00 00    	ld	a,(_enemies)
1625  053A  C6 00       	add	a,+((_state) & 0xFF)
1626  053C  4F          	ld	c,a
1627  053D  3E 00       	ld	a,+((_state) / 256)
1628  053F  CE 00       	adc	a,0x00
1629  0541  47          	ld	b,a
1630  0542  0A          	ld	a,(bc)
1631  0543  E6 F7       	and	a,0xf7
1632  0545  02          	ld	(bc),a
1633  0546              l_enemy_flip_00103:
1634  0546  3E 00       	ld	a,+((_tile) & 0xFF)
1635  0548  21 00 00    	ld	hl,_enemies
1636  054B  86          	add	a, (hl)
1637  054C  4F          	ld	c,a
1638  054D  3E 00       	ld	a,+((_tile) / 256)
1639  054F  CE 00       	adc	a,0x00
1640  0551  47          	ld	b,a
1641  0552  6E          	ld	l,(hl)
1642  0553  C5          	push	bc
1643  0554  CD 00 00    	call	_spr_tile
1644  0557  C1          	pop	bc
1645  0558  7D          	ld	a, l
1646  0559  02          	ld	(bc),a
1647  055A              l_enemy_flip_00107:
1648  055A  DD F9       	ld	sp, ix
1649  055C  DD E1       	pop	ix
1650  055E  C9          	ret
1651  055F              	SECTION code_compiler
1652  055F              ;	---------------------------------
1653  055F              ; Function enemy_flip_sidestepper
1654  055F              ; ---------------------------------
1655  055F              _enemy_flip_sidestepper:
1656  055F  4D          	ld	c,l
1657  0560  44          	ld	b,h
1658  0561  2A 00 00    	ld	hl,(_enemies)
1659  0564  26 00       	ld	h,0x00
1660  0566  11 00 00    	ld	de,_state
1661  0569  19          	add	hl,de
1662  056A  CB 76       	bit	6,(hl)
1663  056C  28 07       	jr	Z,l_enemy_flip_sidestepper_00102
1664  056E  69          	ld	l, c
1665  056F  60          	ld	h, b
1666  0570  CD 76 04    	call	_enemy_flip
1667  0573  18 54       	jr	l_enemy_flip_sidestepper_00104
1668  0575              l_enemy_flip_sidestepper_00102:
1669  0575  2E 01       	ld	l,0x01
1670  0577  CD 8B 03    	call	_enemy_flip_change_dir
1671  057A  2A 00 00    	ld	hl,(_enemies)
1672  057D  26 00       	ld	h,0x00
1673  057F  01 00 00    	ld	bc,_state
1674  0582  09          	add	hl,bc
1675  0583  7E          	ld	a,(hl)
1676  0584  EE 01       	xor	a,0x01
1677  0586  77          	ld	(hl),a
1678  0587  2A 00 00    	ld	hl,(_enemies)
1679  058A  26 00       	ld	h,0x00
1680  058C  01 00 00    	ld	bc,_state
1681  058F  09          	add	hl,bc
1682  0590  7E          	ld	a,(hl)
1683  0591  E6 FD       	and	a,0xfd
1684  0593  77          	ld	(hl),a
1685  0594  3E 00       	ld	a,+((_state) & 0xFF)
1686  0596  21 00 00    	ld	hl,_enemies
1687  0599  86          	add	a, (hl)
1688  059A  4F          	ld	c,a
1689  059B  3E 00       	ld	a,+((_state) / 256)
1690  059D  CE 00       	adc	a,0x00
1691  059F  47          	ld	b,a
1692  05A0  0A          	ld	a,(bc)
1693  05A1  CB F7       	set	6, a
1694  05A3  02          	ld	(bc),a
1695  05A4  3E 00       	ld	a,+((_jump_lin) & 0xFF)
1696  05A6  86          	add	a, (hl)
1697  05A7  4F          	ld	c,a
1698  05A8  3E 00       	ld	a,+((_jump_lin) / 256)
1699  05AA  CE 00       	adc	a,0x00
1700  05AC  47          	ld	b,a
1701  05AD  3E 00       	ld	a,+((_lin) & 0xFF)
1702  05AF  86          	add	a, (hl)
1703  05B0  5F          	ld	e,a
1704  05B1  3E 00       	ld	a,+((_lin) / 256)
1705  05B3  CE 00       	adc	a,0x00
1706  05B5  57          	ld	d,a
1707  05B6  1A          	ld	a,(de)
1708  05B7  02          	ld	(bc),a
1709  05B8  3E 00       	ld	a,+((_tile) & 0xFF)
1710  05BA  86          	add	a, (hl)
1711  05BB  4F          	ld	c,a
1712  05BC  3E 00       	ld	a,+((_tile) / 256)
1713  05BE  CE 00       	adc	a,0x00
1714  05C0  47          	ld	b,a
1715  05C1  6E          	ld	l,(hl)
1716  05C2  C5          	push	bc
1717  05C3  CD 00 00    	call	_spr_tile
1718  05C6  C1          	pop	bc
1719  05C7  7D          	ld	a, l
1720  05C8  02          	ld	(bc),a
1721  05C9              l_enemy_flip_sidestepper_00104:
1722  05C9  C9          	ret
1723  05CA              	SECTION code_compiler
1724  05CA              ;	---------------------------------
1725  05CA              ; Function enemy_turn
1726  05CA              ; ---------------------------------
1727  05CA              _enemy_turn:
1728  05CA  21 00 00    	ld	hl,_sprite
1729  05CD  36 00       	ld	(hl),0x00
1730  05CF              l_enemy_turn_00123:
1731  05CF  3A 00 00    	ld	a,(_sprite)
1732  05D2  C6 00       	add	a,+((_class) & 0xFF)
1733  05D4  4F          	ld	c,a
1734  05D5  3E 00       	ld	a,+((_class) / 256)
1735  05D7  CE 00       	adc	a,0x00
1736  05D9  47          	ld	b,a
1737  05DA  0A          	ld	a,(bc)
1738  05DB  B7          	or	a, a
1739  05DC  CA FB 06    	jp	Z,l_enemy_turn_00121
1740  05DF  21 00 00    	ld	hl,_sprite
1741  05E2  CD 00 00    	call	_spr_chktime
1742  05E5  7D          	ld	a,l
1743  05E6  B7          	or	a, a
1744  05E7  CA FB 06    	jp	Z,l_enemy_turn_00121
1745  05EA  3A 00 00    	ld	a,(_sprite)
1746  05ED  C6 00       	add	a,+((_lin) & 0xFF)
1747  05EF  4F          	ld	c,a
1748  05F0  3E 00       	ld	a,+((_lin) / 256)
1749  05F2  CE 00       	adc	a,0x00
1750  05F4  47          	ld	b,a
1751  05F5  0A          	ld	a,(bc)
1752  05F6  32 00 00    	ld	(_s_lin0),a
1753  05F9  3A 00 00    	ld	a,(_sprite)
1754  05FC  C6 00       	add	a,+((_col) & 0xFF)
1755  05FE  4F          	ld	c,a
1756  05FF  3E 00       	ld	a,+((_col) / 256)
1757  0601  CE 00       	adc	a,0x00
1758  0603  47          	ld	b,a
1759  0604  0A          	ld	a,(bc)
1760  0605  32 00 00    	ld	(_s_col0),a
1761  0608  3E 00       	ld	a,+((_tile) & 0xFF)
1762  060A  21 00 00    	ld	hl,_sprite
1763  060D  86          	add	a, (hl)
1764  060E  4F          	ld	c,a
1765  060F  3E 00       	ld	a,+((_tile) / 256)
1766  0611  CE 00       	adc	a,0x00
1767  0613  47          	ld	b,a
1768  0614  0A          	ld	a,(bc)
1769  0615  4F          	ld	c,a
1770  0616  5E          	ld	e,(hl)
1771  0617  16 00       	ld	d,0x00
1772  0619  21 00 00    	ld	hl,_colint
1773  061C  19          	add	hl,de
1774  061D  7E          	ld	a,(hl)
1775  061E  81          	add	a,c
1776  061F  32 00 00    	ld	(_s_tile0),a
1777  0622  3A 00 00    	ld	a,(_sprite)
1778  0625  C6 00       	add	a,+((_state) & 0xFF)
1779  0627  4F          	ld	c,a
1780  0628  3E 00       	ld	a,+((_state) / 256)
1781  062A  CE 00       	adc	a,0x00
1782  062C  47          	ld	b,a
1783  062D  0A          	ld	a,(bc)
1784  062E  32 00 00    	ld	(_s_state),a
1785  0631  2A 00 00    	ld	hl,(_sprite)
1786  0634  26 00       	ld	h,0x00
1787  0636  29          	add	hl,hl
1788  0637  01 00 00    	ld	bc,_last_time
1789  063A  09          	add	hl,bc
1790  063B  ED 5B 00 00 	ld	de,(_curr_time)
1791  063F  73          	ld	(hl),e
1792  0640  23          	inc	hl
1793  0641  72          	ld	(hl),d
1794  0642  21 00 00    	ld	hl,_s_state
1795  0645  7E          	ld	a,(hl)
1796  0646  E6 01       	and	a,0x01
1797  0648  7E          	ld	a,(hl)
1798  0649  E6 20       	and	a,0x20
1799  064B  28 0E       	jr	Z,l_enemy_turn_00102
1800  064D  7E          	ld	a,(hl)
1801  064E  E6 01       	and	a,0x01
1802  0650  20 09       	jr	NZ,l_enemy_turn_00102
1803  0652  2A 00 00    	ld	hl,(_sprite)
1804  0655  CD 00 00    	call	_spr_killed
1805  0658  C3 FB 06    	jp	l_enemy_turn_00121
1806  065B              l_enemy_turn_00102:
1807  065B  3A 00 00    	ld	a,(_s_state)
1808  065E  E6 10       	and	a,0x10
1809  0660  28 39       	jr	Z,l_enemy_turn_00107
1810  0662  21 00 00    	ld	hl,_s_state
1811  0665  7E          	ld	a,(hl)
1812  0666  E6 02       	and	a,0x02
1813  0668  20 31       	jr	NZ,l_enemy_turn_00107
1814  066A  7E          	ld	a,(hl)
1815  066B  E6 01       	and	a,0x01
1816  066D  20 2C       	jr	NZ,l_enemy_turn_00107
1817  066F  3A 00 00    	ld	a,(_sprite)
1818  0672  C6 00       	add	a,+((_sprite_speed_alt) & 0xFF)
1819  0674  4F          	ld	c,a
1820  0675  3E 00       	ld	a,+((_sprite_speed_alt) / 256)
1821  0677  CE 00       	adc	a,0x00
1822  0679  47          	ld	b,a
1823  067A  3E 08       	ld	a,0x08
1824  067C  02          	ld	(bc),a
1825  067D  CD 65 0C    	call	_enemy_standard_hit
1826  0680  2A 00 00    	ld	hl,(_sprite)
1827  0683  26 00       	ld	h,0x00
1828  0685  01 00 00    	ld	bc,_colint
1829  0688  09          	add	hl,bc
1830  0689  7E          	ld	a,(hl)
1831  068A  3C          	inc	a
1832  068B  77          	ld	(hl),a
1833  068C  4D          	ld	c,l
1834  068D  44          	ld	b,h
1835  068E  5F          	ld	e,a
1836  068F  3E 02       	ld	a,0x02
1837  0691  93          	sub	a, e
1838  0692  30 02       	jr	NC,l_enemy_turn_00105
1839  0694  AF          	xor	a, a
1840  0695  02          	ld	(bc),a
1841  0696              l_enemy_turn_00105:
1842  0696  CD 00 00    	call	_spr_redraw
1843  0699  18 60       	jr	l_enemy_turn_00121
1844  069B              l_enemy_turn_00107:
1845  069B  2A 00 00    	ld	hl,(_sprite)
1846  069E  26 00       	ld	h,0x00
1847  06A0  01 00 00    	ld	bc,_class
1848  06A3  09          	add	hl,bc
1849  06A4  7E          	ld	a,(hl)
1850  06A5  4F          	ld	c,a
1851  06A6  D6 07       	sub	a,0x07
1852  06A8  38 3C       	jr	C,l_enemy_turn_00116
1853  06AA  3E 0C       	ld	a,0x0c
1854  06AC  91          	sub	a,c
1855  06AD  38 37       	jr	C,l_enemy_turn_00116
1856  06AF  79          	ld	a,c
1857  06B0  C6 F9       	add	a,0xf9
1858  06B2  44          	ld	b,h
1859  06B3  5F          	ld	e,a
1860  06B4  16 00       	ld	d,0x00
1861  06B6  21 BC 06    	ld	hl,l_enemy_turn_00176
1862  06B9  19          	add	hl,de
1863  06BA  19          	add	hl,de
1864  06BB  E9          	jp	(hl)
1865  06BC              l_enemy_turn_00176:
1866  06BC  18 19       	jr	l_enemy_turn_00113
1867  06BE  18 1C       	jr	l_enemy_turn_00114
1868  06C0  18 10       	jr	l_enemy_turn_00112
1869  06C2  18 04       	jr	l_enemy_turn_00110
1870  06C4  18 07       	jr	l_enemy_turn_00111
1871  06C6  18 19       	jr	l_enemy_turn_00115
1872  06C8              l_enemy_turn_00110:
1873  06C8  CD 16 09    	call	_enemy_fireball_red
1874  06CB  18 1C       	jr	l_enemy_turn_00117
1875  06CD              l_enemy_turn_00111:
1876  06CD  CD F2 09    	call	_enemy_fireball_green
1877  06D0  18 17       	jr	l_enemy_turn_00117
1878  06D2              l_enemy_turn_00112:
1879  06D2  CD 9C 0A    	call	_enemy_fighterfly
1880  06D5  18 12       	jr	l_enemy_turn_00117
1881  06D7              l_enemy_turn_00113:
1882  06D7  CD 82 07    	call	_enemy_slipice
1883  06DA  18 0D       	jr	l_enemy_turn_00117
1884  06DC              l_enemy_turn_00114:
1885  06DC  CD 00 00    	call	_enemy_coin1
1886  06DF  18 08       	jr	l_enemy_turn_00117
1887  06E1              l_enemy_turn_00115:
1888  06E1  CD 33 00    	call	_enemy_coin2
1889  06E4  18 03       	jr	l_enemy_turn_00117
1890  06E6              l_enemy_turn_00116:
1891  06E6  CD 07 07    	call	_enemy_standard
1892  06E9              l_enemy_turn_00117:
1893  06E9  CD 00 00    	call	_spr_redraw
1894  06EC  3A 00 00    	ld	a,(_sprite)
1895  06EF  C6 00       	add	a,+((_state) & 0xFF)
1896  06F1  4F          	ld	c,a
1897  06F2  3E 00       	ld	a,+((_state) / 256)
1898  06F4  CE 00       	adc	a,0x00
1899  06F6  47          	ld	b,a
1900  06F7  3A 00 00    	ld	a,(_s_state)
1901  06FA  02          	ld	(bc),a
1902  06FB              l_enemy_turn_00121:
1903  06FB  21 00 00    	ld	hl,_sprite
1904  06FE  7E          	ld	a,(hl)
1905  06FF  3C          	inc	a
1906  0700  77          	ld	(hl),a
1907  0701  D6 06       	sub	a,0x06
1908  0703  DA CF 05    	jp	C,l_enemy_turn_00123
1909  0706  C9          	ret
1910  0707              	SECTION code_compiler
1911  0707              ;	---------------------------------
1912  0707              ; Function enemy_standard
1913  0707              ; ---------------------------------
1914  0707              _enemy_standard:
1915  0707  3A 00 00    	ld	a,(_s_state)
1916  070A  0F          	rrca
1917  070B  38 2D       	jr	C,l_enemy_standard_00110
1918  070D  CD 61 0D    	call	_enemy_walk
1919  0710  2A 00 00    	ld	hl,(_sprite)
1920  0713  26 00       	ld	h,0x00
1921  0715  01 00 00    	ld	bc,_lin
1922  0718  09          	add	hl,bc
1923  0719  7E          	ld	a,(hl)
1924  071A  D6 98       	sub	a,0x98
1925  071C  21 00 00    	ld	hl,_sprite
1926  071F  20 5E       	jr	NZ,l_enemy_standard_00111
1927  0721  4E          	ld	c,(hl)
1928  0722  06 00       	ld	b,0x00
1929  0724  21 00 00    	ld	hl,_col
1930  0727  09          	add	hl,bc
1931  0728  7E          	ld	a,(hl)
1932  0729  4F          	ld	c,a
1933  072A  D6 05       	sub	a,0x05
1934  072C  38 05       	jr	C,l_enemy_standard_00101
1935  072E  3E 19       	ld	a,0x19
1936  0730  91          	sub	a, c
1937  0731  30 4C       	jr	NC,l_enemy_standard_00111
1938  0733              l_enemy_standard_00101:
1939  0733  21 00 00    	ld	hl,_s_state
1940  0736  CB C6       	set	0, (hl)
1941  0738  18 45       	jr	l_enemy_standard_00111
1942  073A              l_enemy_standard_00110:
1943  073A  3A 00 00    	ld	a,(_sprite)
1944  073D  C6 00       	add	a,+((_sprite_speed_alt) & 0xFF)
1945  073F  4F          	ld	c,a
1946  0740  3E 00       	ld	a,+((_sprite_speed_alt) / 256)
1947  0742  CE 00       	adc	a,0x00
1948  0744  47          	ld	b,a
1949  0745  3E 01       	ld	a,0x01
1950  0747  02          	ld	(bc),a
1951  0748  CD 00 00    	call	_spr_move_horizontal
1952  074B  CD 00 00    	call	_spr_move_up
1953  074E  3A 00 00    	ld	a,(_s_state)
1954  0751  0F          	rrca
1955  0752  D2 5D 0B    	jp	NC,_enemy_trip
1956  0755  2A 00 00    	ld	hl,(_sprite)
1957  0758  26 00       	ld	h,0x00
1958  075A  5D          	ld	e,l
1959  075B  01 00 00    	ld	bc,_jump_lin
1960  075E  09          	add	hl,bc
1961  075F  4E          	ld	c,(hl)
1962  0760  06 00       	ld	b,0x00
1963  0762  50          	ld	d,b
1964  0763  21 00 00    	ld	hl,_lin
1965  0766  19          	add	hl,de
1966  0767  5E          	ld	e, (hl)
1967  0768  16 00       	ld	d,0x00
1968  076A  79          	ld	a,c
1969  076B  93          	sub	a, e
1970  076C  4F          	ld	c,a
1971  076D  78          	ld	a,b
1972  076E  9A          	sbc	a, d
1973  076F  47          	ld	b,a
1974  0770  79          	ld	a,c
1975  0771  D6 0C       	sub	a,0x0c
1976  0773  78          	ld	a,b
1977  0774  17          	rla
1978  0775  3F          	ccf
1979  0776  1F          	rra
1980  0777  DE 80       	sbc	a,0x80
1981  0779  DA 5D 0B    	jp	C,_enemy_trip
1982  077C  CD 00 00    	call	_spr_set_fall
1983  077F              l_enemy_standard_00111:
1984  077F  C3 5D 0B    	jp  _enemy_trip
1985  0782              	SECTION code_compiler
1986  0782              ;	---------------------------------
1987  0782              ; Function enemy_slipice
1988  0782              ; ---------------------------------
1989  0782              _enemy_slipice:
1990  0782  3A 00 00    	ld	a,(_phase_left)
1991  0785  B7          	or	a, a
1992  0786  CA 15 09    	jp	Z,l_enemy_slipice_00126
1993  0789  3A 00 00    	ld	a,(_sprite)
1994  078C  C6 00       	add	a,+((_state) & 0xFF)
1995  078E  4F          	ld	c,a
1996  078F  3E 00       	ld	a,+((_state) / 256)
1997  0791  CE 00       	adc	a,0x00
1998  0793  47          	ld	b,a
1999  0794  0A          	ld	a,(bc)
2000  0795  CB 77       	bit	6, a
2001  0797  CA 3A 08    	jp	Z,l_enemy_slipice_00122
2002  079A  76          	halt
2003  079B  3E 00       	ld	a,+((_col) & 0xFF)
2004  079D  21 00 00    	ld	hl,_sprite
2005  07A0  86          	add	a, (hl)
2006  07A1  4F          	ld	c,a
2007  07A2  3E 00       	ld	a,+((_col) / 256)
2008  07A4  CE 00       	adc	a,0x00
2009  07A6  47          	ld	b,a
2010  07A7  0A          	ld	a,(bc)
2011  07A8  57          	ld	d,a
2012  07A9  3E 00       	ld	a,+((_lin) & 0xFF)
2013  07AB  86          	add	a, (hl)
2014  07AC  4F          	ld	c,a
2015  07AD  3E 00       	ld	a,+((_lin) / 256)
2016  07AF  CE 00       	adc	a,0x00
2017  07B1  47          	ld	b,a
2018  07B2  0A          	ld	a,(bc)
2019  07B3  C6 08       	add	a,0x08
2020  07B5  5F          	ld	e,a
2021  07B6  3E 00       	ld	a,+((_colint) & 0xFF)
2022  07B8  86          	add	a, (hl)
2023  07B9  4F          	ld	c,a
2024  07BA  3E 00       	ld	a,+((_colint) / 256)
2025  07BC  CE 00       	adc	a,0x00
2026  07BE  47          	ld	b,a
2027  07BF  0A          	ld	a,(bc)
2028  07C0  C6 8D       	add	a,0x8d
2029  07C2  47          	ld	b,a
2030  07C3  D5          	push	de
2031  07C4  C5          	push	bc
2032  07C5  33          	inc	sp
2033  07C6  CD 00 00    	call	_NIRVANAP_drawT_callee
2034  07C9  2A 00 00    	ld	hl,(_sprite)
2035  07CC  26 00       	ld	h,0x00
2036  07CE  01 00 00    	ld	bc,_colint
2037  07D1  09          	add	hl,bc
2038  07D2  7E          	ld	a,(hl)
2039  07D3  3C          	inc	a
2040  07D4  77          	ld	(hl),a
2041  07D5  4D          	ld	c,l
2042  07D6  44          	ld	b,h
2043  07D7  5F          	ld	e,a
2044  07D8  3E 02       	ld	a,0x02
2045  07DA  93          	sub	a, e
2046  07DB  30 02       	jr	NC,l_enemy_slipice_00102
2047  07DD  AF          	xor	a, a
2048  07DE  02          	ld	(bc),a
2049  07DF              l_enemy_slipice_00102:
2050  07DF  2A 00 00    	ld	hl,(_sprite)
2051  07E2  26 00       	ld	h,0x00
2052  07E4  29          	add	hl, hl
2053  07E5  11 00 00    	ld	de,_spr_timer
2054  07E8  19          	add	hl,de
2055  07E9  4E          	ld	c,(hl)
2056  07EA  23          	inc	hl
2057  07EB  46          	ld	b,(hl)
2058  07EC  21 28 00    	ld	hl,0x0028
2059  07EF  E5          	push	hl
2060  07F0  C5          	push	bc
2061  07F1  CD 00 00    	call	_game_check_time
2062  07F4  F1          	pop	af
2063  07F5  F1          	pop	af
2064  07F6  7D          	ld	a,l
2065  07F7  B7          	or	a, a
2066  07F8  CA 15 09    	jp	Z,l_enemy_slipice_00126
2067  07FB  2A 00 00    	ld	hl,(_sprite)
2068  07FE  26 00       	ld	h,0x00
2069  0800  5D          	ld	e,l
2070  0801  01 00 00    	ld	bc,_col
2071  0804  09          	add	hl,bc
2072  0805  46          	ld	b,(hl)
2073  0806  16 00       	ld	d,0x00
2074  0808  21 00 00    	ld	hl,_lin
2075  080B  19          	add	hl,de
2076  080C  7E          	ld	a,(hl)
2077  080D  C6 18       	add	a,0x18
2078  080F  4F          	ld	c,a
2079  0810  C5          	push	bc
2080  0811  CD 00 00    	call	_game_freeze
2081  0814  F1          	pop	af
2082  0815  2A 00 00    	ld	hl,(_sprite)
2083  0818  26 00       	ld	h,0x00
2084  081A  5D          	ld	e,l
2085  081B  01 00 00    	ld	bc,_col
2086  081E  09          	add	hl,bc
2087  081F  46          	ld	b,(hl)
2088  0820  16 00       	ld	d,0x00
2089  0822  21 00 00    	ld	hl,_lin
2090  0825  19          	add	hl,de
2091  0826  7E          	ld	a,(hl)
2092  0827  C6 08       	add	a,0x08
2093  0829  4F          	ld	c,a
2094  082A  C5          	push	bc
2095  082B  AF          	xor	a, a
2096  082C  F5          	push	af
2097  082D  33          	inc	sp
2098  082E  CD 00 00    	call	_NIRVANAP_fillT_callee
2099  0831  2A 00 00    	ld	hl,(_sprite)
2100  0834  CD 00 00    	call	_spr_destroy
2101  0837  C3 15 09    	jp	l_enemy_slipice_00126
2102  083A              l_enemy_slipice_00122:
2103  083A  CB 47       	bit	0, a
2104  083C  C2 E9 08    	jp	NZ,l_enemy_slipice_00110
2105  083F  CB 4F       	bit	1, a
2106  0841  C2 E9 08    	jp	NZ,l_enemy_slipice_00110
2107  0844  2A 00 00    	ld	hl,(_sprite)
2108  0847  26 00       	ld	h,0x00
2109  0849  01 00 00    	ld	bc,_col
2110  084C  09          	add	hl,bc
2111  084D  7E          	ld	a,(hl)
2112  084E  4F          	ld	c,a
2113  084F  D6 07       	sub	a,0x07
2114  0851  28 0A       	jr	Z,l_enemy_slipice_00116
2115  0853  79          	ld	a,c
2116  0854  FE 0F       	cp	a,0x0f
2117  0856  28 05       	jr	Z,l_enemy_slipice_00116
2118  0858  D6 18       	sub	a,0x18
2119  085A  C2 E9 08    	jp	NZ,l_enemy_slipice_00110
2120  085D              l_enemy_slipice_00116:
2121  085D  79          	ld	a,c
2122  085E  D6 88       	sub	a,0x88
2123  0860  D2 E9 08    	jp	NC,l_enemy_slipice_00110
2124  0863  CD 00 00    	call	_rand
2125  0866  22 00 00    	ld	(_tmp_ui),hl
2126  0869  3E 00       	ld	a,+((_col) & 0xFF)
2127  086B  21 00 00    	ld	hl,_sprite
2128  086E  86          	add	a, (hl)
2129  086F  4F          	ld	c,a
2130  0870  3E 00       	ld	a,+((_col) / 256)
2131  0872  CE 00       	adc	a,0x00
2132  0874  47          	ld	b,a
2133  0875  0A          	ld	a,(bc)
2134  0876  57          	ld	d,a
2135  0877  4E          	ld	c,(hl)
2136  0878  06 00       	ld	b,0x00
2137  087A  21 00 00    	ld	hl,_lin
2138  087D  09          	add	hl,bc
2139  087E  7E          	ld	a,(hl)
2140  087F  C6 10       	add	a,0x10
2141  0881  5F          	ld	e, a
2142  0882  D5          	push	de
2143  0883  CD 00 00    	call	_game_calc_index
2144  0886  F1          	pop	af
2145  0887  22 00 00    	ld	(_index1),hl
2146  088A  01 00 00    	ld	bc,_lvl_1
2147  088D  09          	add	hl,bc
2148  088E  7E          	ld	a,(hl)
2149  088F  D6 12       	sub	a,0x12
2150  0891  20 51       	jr	NZ,l_enemy_slipice_00106
2151  0893  21 00 00    	ld	hl,_tmp_ui
2152  0896  7E          	ld	a,(hl)
2153  0897  D6 32       	sub	a,0x32
2154  0899  23          	inc	hl
2155  089A  7E          	ld	a,(hl)
2156  089B  DE 33       	sbc	a,0x33
2157  089D  30 45       	jr	NC,l_enemy_slipice_00106
2158  089F  21 00 00    	ld	hl,_ay_effect_16
2159  08A2  CD 00 00    	call	_ay_fx_play
2160  08A5  21 00 00    	ld	hl,_s_state
2161  08A8  CB F6       	set	6, (hl)
2162  08AA  01 00 00    	ld	bc,_spr_timer+0
2163  08AD  2A 00 00    	ld	hl,(_sprite)
2164  08B0  26 00       	ld	h,0x00
2165  08B2  29          	add	hl, hl
2166  08B3  09          	add	hl,bc
2167  08B4  ED 5B 00 00 	ld	de,(_curr_time)
2168  08B8  73          	ld	(hl),e
2169  08B9  23          	inc	hl
2170  08BA  72          	ld	(hl),d
2171  08BB  2A 00 00    	ld	hl,(_sprite)
2172  08BE  26 00       	ld	h,0x00
2173  08C0  01 00 00    	ld	bc,_lin
2174  08C3  09          	add	hl,bc
2175  08C4  7E          	ld	a,(hl)
2176  08C5  C6 F8       	add	a,0xf8
2177  08C7  77          	ld	(hl),a
2178  08C8  3E 00       	ld	a,+((_colint) & 0xFF)
2179  08CA  21 00 00    	ld	hl,_sprite
2180  08CD  86          	add	a, (hl)
2181  08CE  4F          	ld	c,a
2182  08CF  3E 00       	ld	a,+((_colint) / 256)
2183  08D1  CE 00       	adc	a,0x00
2184  08D3  47          	ld	b,a
2185  08D4  AF          	xor	a, a
2186  08D5  02          	ld	(bc),a
2187  08D6  3E 00       	ld	a,+((_tile) & 0xFF)
2188  08D8  86          	add	a, (hl)
2189  08D9  4F          	ld	c,a
2190  08DA  3E 00       	ld	a,+((_tile) / 256)
2191  08DC  CE 00       	adc	a,0x00
2192  08DE  47          	ld	b,a
2193  08DF  3E 7B       	ld	a,0x7b
2194  08E1  02          	ld	(bc),a
2195  08E2  18 08       	jr	l_enemy_slipice_00111
2196  08E4              l_enemy_slipice_00106:
2197  08E4  CD 61 0D    	call	_enemy_walk
2198  08E7  18 03       	jr	l_enemy_slipice_00111
2199  08E9              l_enemy_slipice_00110:
2200  08E9  CD 61 0D    	call	_enemy_walk
2201  08EC              l_enemy_slipice_00111:
2202  08EC  2A 00 00    	ld	hl,(_sprite)
2203  08EF  26 00       	ld	h,0x00
2204  08F1  01 00 00    	ld	bc,_lin
2205  08F4  09          	add	hl,bc
2206  08F5  7E          	ld	a,(hl)
2207  08F6  D6 98       	sub	a,0x98
2208  08F8  20 1B       	jr	NZ,l_enemy_slipice_00126
2209  08FA  3A 00 00    	ld	a,(_sprite)
2210  08FD  4F          	ld	c,a
2211  08FE  06 00       	ld	b,0x00
2212  0900  21 00 00    	ld	hl,_col
2213  0903  09          	add	hl,bc
2214  0904  7E          	ld	a,(hl)
2215  0905  4F          	ld	c,a
2216  0906  D6 03       	sub	a,0x03
2217  0908  28 05       	jr	Z,l_enemy_slipice_00117
2218  090A  79          	ld	a,c
2219  090B  D6 1B       	sub	a,0x1b
2220  090D  20 06       	jr	NZ,l_enemy_slipice_00126
2221  090F              l_enemy_slipice_00117:
2222  090F  2A 00 00    	ld	hl,(_sprite)
2223  0912  CD 00 00    	call	_spr_destroy
2224  0915              l_enemy_slipice_00126:
2225  0915  C9          	ret
2226  0916              	SECTION code_compiler
2227  0916              ;	---------------------------------
2228  0916              ; Function enemy_fireball_red
2229  0916              ; ---------------------------------
2230  0916              _enemy_fireball_red:
2231  0916  3A 00 00    	ld	a,(_phase_left)
2232  0919  B7          	or	a, a
2233  091A  CA F1 09    	jp	Z,l_enemy_fireball_red_00120
2234  091D  01 00 00    	ld	bc,_spr_timer+0
2235  0920  2A 00 00    	ld	hl,(_sprite)
2236  0923  26 00       	ld	h,0x00
2237  0925  29          	add	hl, hl
2238  0926  09          	add	hl,bc
2239  0927  5E          	ld	e,(hl)
2240  0928  23          	inc	hl
2241  0929  56          	ld	d,(hl)
2242  092A  C5          	push	bc
2243  092B  21 DC 05    	ld	hl,0x05dc
2244  092E  E5          	push	hl
2245  092F  D5          	push	de
2246  0930  CD 00 00    	call	_game_check_time
2247  0933  F1          	pop	af
2248  0934  F1          	pop	af
2249  0935  C1          	pop	bc
2250  0936  7D          	ld	a,l
2251  0937  B7          	or	a, a
2252  0938  28 24       	jr	Z,l_enemy_fireball_red_00116
2253  093A  2A 00 00    	ld	hl,(_sprite)
2254  093D  26 00       	ld	h,0x00
2255  093F  29          	add	hl, hl
2256  0940  09          	add	hl,bc
2257  0941  ED 5B 00 00 	ld	de,(_curr_time)
2258  0945  73          	ld	(hl),e
2259  0946  23          	inc	hl
2260  0947  72          	ld	(hl),d
2261  0948  3A 00 00    	ld	a,(_sprite)
2262  094B  C6 00       	add	a,+((_sprite_speed_alt) & 0xFF)
2263  094D  4F          	ld	c,a
2264  094E  3E 00       	ld	a,+((_sprite_speed_alt) / 256)
2265  0950  CE 00       	adc	a,0x00
2266  0952  47          	ld	b,a
2267  0953  3E 08       	ld	a,0x08
2268  0955  02          	ld	(bc),a
2269  0956  21 00 00    	ld	hl,_s_state
2270  0959  CB EE       	set	5, (hl)
2271  095B  C3 F1 09    	jp	l_enemy_fireball_red_00120
2272  095E              l_enemy_fireball_red_00116:
2273  095E  3A 00 00    	ld	a,(_s_state)
2274  0961  0F          	rrca
2275  0962  30 11       	jr	NC,l_enemy_fireball_red_00106
2276  0964  CD 00 00    	call	_spr_move_up
2277  0967  7D          	ld	a,l
2278  0968  B7          	or	a, a
2279  0969  28 03       	jr	Z,l_enemy_fireball_red_00102
2280  096B  CD 00 00    	call	_spr_set_fall
2281  096E              l_enemy_fireball_red_00102:
2282  096E  21 00 00    	ld	hl,_tmp
2283  0971  36 00       	ld	(hl),0x00
2284  0973  18 14       	jr	l_enemy_fireball_red_00107
2285  0975              l_enemy_fireball_red_00106:
2286  0975  CD 00 00    	call	_spr_move_down
2287  0978  21 00 00    	ld	hl,_tmp
2288  097B  36 10       	ld	(hl),0x10
2289  097D  3A 00 00    	ld	a,(_s_state)
2290  0980  E6 02       	and	a,0x02
2291  0982  20 05       	jr	NZ,l_enemy_fireball_red_00107
2292  0984  21 00 00    	ld	hl,_s_state
2293  0987  CB C6       	set	0, (hl)
2294  0989              l_enemy_fireball_red_00107:
2295  0989  CD 00 00    	call	_spr_move_horizontal
2296  098C  3A 00 00    	ld	a,(_s_state)
2297  098F  E6 04       	and	a,0x04
2298  0991  28 13       	jr	Z,l_enemy_fireball_red_00109
2299  0993  3A 00 00    	ld	a,(_sprite)
2300  0996  C6 00       	add	a,+((_col) & 0xFF)
2301  0998  4F          	ld	c,a
2302  0999  3E 00       	ld	a,+((_col) / 256)
2303  099B  CE 00       	adc	a,0x00
2304  099D  47          	ld	b,a
2305  099E  0A          	ld	a,(bc)
2306  099F  C6 02       	add	a,0x02
2307  09A1  32 00 00    	ld	(_s_col1),a
2308  09A4  18 11       	jr	l_enemy_fireball_red_00110
2309  09A6              l_enemy_fireball_red_00109:
2310  09A6  3A 00 00    	ld	a,(_sprite)
2311  09A9  C6 00       	add	a,+((_col) & 0xFF)
2312  09AB  4F          	ld	c,a
2313  09AC  3E 00       	ld	a,+((_col) / 256)
2314  09AE  CE 00       	adc	a,0x00
2315  09B0  47          	ld	b,a
2316  09B1  0A          	ld	a,(bc)
2317  09B2  C6 FF       	add	a,0xff
2318  09B4  32 00 00    	ld	(_s_col1),a
2319  09B7              l_enemy_fireball_red_00110:
2320  09B7  2A 00 00    	ld	hl,(_sprite)
2321  09BA  26 00       	ld	h,0x00
2322  09BC  01 00 00    	ld	bc,_lin
2323  09BF  09          	add	hl,bc
2324  09C0  4E          	ld	c, (hl)
2325  09C1  3A 00 00    	ld	a, (_s_col1)
2326  09C4  47          	ld	b,a
2327  09C5  C5          	push	bc
2328  09C6  CD 00 00    	call	_game_calc_index
2329  09C9  F1          	pop	af
2330  09CA  22 00 00    	ld	(_index1),hl
2331  09CD  01 00 00    	ld	bc,_lvl_1
2332  09D0  09          	add	hl,bc
2333  09D1  7E          	ld	a,(hl)
2334  09D2  D6 BF       	sub	a,0xbf
2335  09D4  30 14       	jr	NC,l_enemy_fireball_red_00111
2336  09D6  2A 00 00    	ld	hl,(_sprite)
2337  09D9  26 00       	ld	h,0x00
2338  09DB  01 00 00    	ld	bc,_col
2339  09DE  09          	add	hl,bc
2340  09DF  7E          	ld	a,(hl)
2341  09E0  4F          	ld	c,a
2342  09E1  D6 02       	sub	a,0x02
2343  09E3  38 05       	jr	C,l_enemy_fireball_red_00111
2344  09E5  3E 1D       	ld	a,0x1d
2345  09E7  91          	sub	a, c
2346  09E8  30 07       	jr	NC,l_enemy_fireball_red_00120
2347  09EA              l_enemy_fireball_red_00111:
2348  09EA  21 00 00    	ld	hl,_s_state
2349  09ED  7E          	ld	a,(hl)
2350  09EE  EE 0C       	xor	a,+(0x04^0x08)
2351  09F0  77          	ld	(hl),a
2352  09F1              l_enemy_fireball_red_00120:
2353  09F1  C9          	ret
2354  09F2              	SECTION code_compiler
2355  09F2              ;	---------------------------------
2356  09F2              ; Function enemy_fireball_green
2357  09F2              ; ---------------------------------
2358  09F2              _enemy_fireball_green:
2359  09F2  3A 00 00    	ld	a,(_phase_left)
2360  09F5  B7          	or	a, a
2361  09F6  CA 9B 0A    	jp	Z,l_enemy_fireball_green_00113
2362  09F9  2A 00 00    	ld	hl,(_sprite)
2363  09FC  26 00       	ld	h,0x00
2364  09FE  5D          	ld	e,l
2365  09FF  01 00 00    	ld	bc,_jump_lin
2366  0A02  09          	add	hl,bc
2367  0A03  4E          	ld	c,(hl)
2368  0A04  06 00       	ld	b,0x00
2369  0A06  50          	ld	d,b
2370  0A07  21 00 00    	ld	hl,_lin
2371  0A0A  19          	add	hl,de
2372  0A0B  5E          	ld	e, (hl)
2373  0A0C  16 00       	ld	d,0x00
2374  0A0E  79          	ld	a,c
2375  0A0F  93          	sub	a, e
2376  0A10  6F          	ld	l,a
2377  0A11  78          	ld	a,b
2378  0A12  9A          	sbc	a, d
2379  0A13  67          	ld	h,a
2380  0A14  CD 00 00    	call	_abs_fastcall
2381  0A17  22 00 00    	ld	(_index1),hl
2382  0A1A  3E 08       	ld	a,0x08
2383  0A1C  21 00 00    	ld	hl,_index1
2384  0A1F  BE          	cp	a, (hl)
2385  0A20  3E 00       	ld	a,0x00
2386  0A22  23          	inc	hl
2387  0A23  9E          	sbc	a, (hl)
2388  0A24  30 1C       	jr	NC,l_enemy_fireball_green_00102
2389  0A26  21 00 00    	ld	hl,_s_state
2390  0A29  7E          	ld	a,(hl)
2391  0A2A  EE 03       	xor	a,+(0x01^0x02)
2392  0A2C  77          	ld	(hl),a
2393  0A2D  3E 00       	ld	a,+((_jump_lin) & 0xFF)
2394  0A2F  21 00 00    	ld	hl,_sprite
2395  0A32  86          	add	a, (hl)
2396  0A33  4F          	ld	c,a
2397  0A34  3E 00       	ld	a,+((_jump_lin) / 256)
2398  0A36  CE 00       	adc	a,0x00
2399  0A38  47          	ld	b,a
2400  0A39  5E          	ld	e,(hl)
2401  0A3A  16 00       	ld	d,0x00
2402  0A3C  21 00 00    	ld	hl,_lin
2403  0A3F  19          	add	hl,de
2404  0A40  7E          	ld	a,(hl)
2405  0A41  02          	ld	(bc),a
2406  0A42              l_enemy_fireball_green_00102:
2407  0A42  3A 00 00    	ld	a,(_s_state)
2408  0A45  0F          	rrca
2409  0A46  30 08       	jr	NC,l_enemy_fireball_green_00104
2410  0A48  CD 00 00    	call	_spr_move_horizontal
2411  0A4B  CD 00 00    	call	_spr_move_up
2412  0A4E  18 06       	jr	l_enemy_fireball_green_00105
2413  0A50              l_enemy_fireball_green_00104:
2414  0A50  CD 00 00    	call	_spr_move_horizontal
2415  0A53  CD 00 00    	call	_spr_move_down
2416  0A56              l_enemy_fireball_green_00105:
2417  0A56  3A 00 00    	ld	a,(_sprite)
2418  0A59  C6 00       	add	a,+((_col) & 0xFF)
2419  0A5B  4F          	ld	c,a
2420  0A5C  3E 00       	ld	a,+((_col) / 256)
2421  0A5E  CE 00       	adc	a,0x00
2422  0A60  47          	ld	b,a
2423  0A61  0A          	ld	a,(bc)
2424  0A62  B7          	or	a, a
2425  0A63  20 07       	jr	NZ,l_enemy_fireball_green_00110
2426  0A65  3A 00 00    	ld	a,(_s_state)
2427  0A68  E6 08       	and	a,0x08
2428  0A6A  20 0B       	jr	NZ,l_enemy_fireball_green_00106
2429  0A6C              l_enemy_fireball_green_00110:
2430  0A6C  D6 1E       	sub	a,0x1e
2431  0A6E  20 2B       	jr	NZ,l_enemy_fireball_green_00113
2432  0A70  3A 00 00    	ld	a,(_s_state)
2433  0A73  E6 04       	and	a,0x04
2434  0A75  28 24       	jr	Z,l_enemy_fireball_green_00113
2435  0A77              l_enemy_fireball_green_00106:
2436  0A77  01 00 00    	ld	bc,_spr_timer+0
2437  0A7A  2A 00 00    	ld	hl,(_sprite)
2438  0A7D  26 00       	ld	h,0x00
2439  0A7F  29          	add	hl, hl
2440  0A80  09          	add	hl,bc
2441  0A81  ED 5B 00 00 	ld	de,(_curr_time)
2442  0A85  73          	ld	(hl),e
2443  0A86  23          	inc	hl
2444  0A87  72          	ld	(hl),d
2445  0A88  3A 00 00    	ld	a,(_sprite)
2446  0A8B  C6 00       	add	a,+((_sprite_speed_alt) & 0xFF)
2447  0A8D  4F          	ld	c,a
2448  0A8E  3E 00       	ld	a,+((_sprite_speed_alt) / 256)
2449  0A90  CE 00       	adc	a,0x00
2450  0A92  47          	ld	b,a
2451  0A93  3E 08       	ld	a,0x08
2452  0A95  02          	ld	(bc),a
2453  0A96  21 00 00    	ld	hl,_s_state
2454  0A99  CB EE       	set	5, (hl)
2455  0A9B              l_enemy_fireball_green_00113:
2456  0A9B  C9          	ret
2457  0A9C              	SECTION code_compiler
2458  0A9C              ;	---------------------------------
2459  0A9C              ; Function enemy_fighterfly
2460  0A9C              ; ---------------------------------
2461  0A9C              _enemy_fighterfly:
2462  0A9C  3A 00 00    	ld	a,(_s_state)
2463  0A9F  0F          	rrca
2464  0AA0  38 58       	jr	C,l_enemy_fighterfly_00106
2465  0AA2  3A 00 00    	ld	a,(_s_state)
2466  0AA5  E6 02       	and	a,0x02
2467  0AA7  20 51       	jr	NZ,l_enemy_fighterfly_00106
2468  0AA9  CD 00 00    	call	_ay_is_playing
2469  0AAC  7D          	ld	a, l
2470  0AAD  D6 02       	sub	a,0x02
2471  0AAF  30 06       	jr	NC,l_enemy_fighterfly_00102
2472  0AB1  21 00 00    	ld	hl,_ay_effect_13
2473  0AB4  CD 00 00    	call	_ay_fx_play
2474  0AB7              l_enemy_fighterfly_00102:
2475  0AB7  2A 00 00    	ld	hl,(_sprite)
2476  0ABA  26 00       	ld	h,0x00
2477  0ABC  29          	add	hl, hl
2478  0ABD  11 00 00    	ld	de,_spr_timer
2479  0AC0  19          	add	hl,de
2480  0AC1  4E          	ld	c,(hl)
2481  0AC2  23          	inc	hl
2482  0AC3  46          	ld	b,(hl)
2483  0AC4  21 1A 00    	ld	hl,0x001a
2484  0AC7  E5          	push	hl
2485  0AC8  C5          	push	bc
2486  0AC9  CD 00 00    	call	_game_check_time
2487  0ACC  F1          	pop	af
2488  0ACD  F1          	pop	af
2489  0ACE  7D          	ld	a,l
2490  0ACF  B7          	or	a, a
2491  0AD0  28 28       	jr	Z,l_enemy_fighterfly_00106
2492  0AD2  21 00 00    	ld	hl,_s_state
2493  0AD5  CB C6       	set	0, (hl)
2494  0AD7  3E 00       	ld	a,+((_jump_lin) & 0xFF)
2495  0AD9  21 00 00    	ld	hl,_sprite
2496  0ADC  86          	add	a, (hl)
2497  0ADD  4F          	ld	c,a
2498  0ADE  3E 00       	ld	a,+((_jump_lin) / 256)
2499  0AE0  CE 00       	adc	a,0x00
2500  0AE2  47          	ld	b,a
2501  0AE3  3E 00       	ld	a,+((_lin) & 0xFF)
2502  0AE5  86          	add	a, (hl)
2503  0AE6  5F          	ld	e,a
2504  0AE7  3E 00       	ld	a,+((_lin) / 256)
2505  0AE9  CE 00       	adc	a,0x00
2506  0AEB  57          	ld	d,a
2507  0AEC  1A          	ld	a,(de)
2508  0AED  02          	ld	(bc),a
2509  0AEE  6E          	ld	l, (hl)
2510  0AEF  26 00       	ld	h,0x00
2511  0AF1  29          	add	hl, hl
2512  0AF2  11 00 00    	ld	de,_spr_timer
2513  0AF5  19          	add	hl,de
2514  0AF6  AF          	xor	a, a
2515  0AF7  77          	ld	(hl), a
2516  0AF8  23          	inc	hl
2517  0AF9  77          	ld	(hl), a
2518  0AFA              l_enemy_fighterfly_00106:
2519  0AFA  3A 00 00    	ld	a,(_s_state)
2520  0AFD  0F          	rrca
2521  0AFE  30 31       	jr	NC,l_enemy_fighterfly_00115
2522  0B00  2A 00 00    	ld	hl,(_sprite)
2523  0B03  26 00       	ld	h,0x00
2524  0B05  5D          	ld	e,l
2525  0B06  01 00 00    	ld	bc,_jump_lin
2526  0B09  09          	add	hl,bc
2527  0B0A  4E          	ld	c,(hl)
2528  0B0B  06 00       	ld	b,0x00
2529  0B0D  50          	ld	d,b
2530  0B0E  21 00 00    	ld	hl,_lin
2531  0B11  19          	add	hl,de
2532  0B12  5E          	ld	e, (hl)
2533  0B13  16 00       	ld	d,0x00
2534  0B15  79          	ld	a,c
2535  0B16  93          	sub	a, e
2536  0B17  4F          	ld	c,a
2537  0B18  78          	ld	a,b
2538  0B19  9A          	sbc	a, d
2539  0B1A  47          	ld	b,a
2540  0B1B  79          	ld	a,c
2541  0B1C  D6 08       	sub	a,0x08
2542  0B1E  78          	ld	a,b
2543  0B1F  17          	rla
2544  0B20  3F          	ccf
2545  0B21  1F          	rra
2546  0B22  DE 80       	sbc	a,0x80
2547  0B24  38 03       	jr	C,l_enemy_fighterfly_00109
2548  0B26  CD 00 00    	call	_spr_set_fall
2549  0B29              l_enemy_fighterfly_00109:
2550  0B29  CD 00 00    	call	_spr_move_horizontal
2551  0B2C  CD 00 00    	call	_spr_move_up
2552  0B2F  18 29       	jr	l_enemy_fighterfly_00116
2553  0B31              l_enemy_fighterfly_00115:
2554  0B31  01 00 00    	ld	bc,_spr_timer+0
2555  0B34  2A 00 00    	ld	hl,(_sprite)
2556  0B37  26 00       	ld	h,0x00
2557  0B39  29          	add	hl, hl
2558  0B3A  09          	add	hl,bc
2559  0B3B  4D          	ld	c,l
2560  0B3C  44          	ld	b,h
2561  0B3D  5E          	ld	e,(hl)
2562  0B3E  23          	inc	hl
2563  0B3F  7E          	ld	a, (hl)
2564  0B40  B3          	or	a,e
2565  0B41  20 09       	jr	NZ,l_enemy_fighterfly_00111
2566  0B43  ED 5B 00 00 	ld	de,(_curr_time)
2567  0B47  7B          	ld	a,e
2568  0B48  02          	ld	(bc),a
2569  0B49  03          	inc	bc
2570  0B4A  7A          	ld	a,d
2571  0B4B  02          	ld	(bc),a
2572  0B4C              l_enemy_fighterfly_00111:
2573  0B4C  3A 00 00    	ld	a,(_s_state)
2574  0B4F  E6 02       	and	a,0x02
2575  0B51  CA 5D 0B    	jp	Z,_enemy_trip
2576  0B54  CD 61 0D    	call	_enemy_walk
2577  0B57  CD 00 00    	call	_spr_move_horizontal
2578  0B5A              l_enemy_fighterfly_00116:
2579  0B5A  C3 5D 0B    	jp  _enemy_trip
2580  0B5D              	SECTION code_compiler
2581  0B5D              ;	---------------------------------
2582  0B5D              ; Function enemy_trip
2583  0B5D              ; ---------------------------------
2584  0B5D              _enemy_trip:
2585  0B5D  2A 00 00    	ld	hl,(_sprite)
2586  0B60  26 00       	ld	h,0x00
2587  0B62  01 00 00    	ld	bc,_lin
2588  0B65  09          	add	hl,bc
2589  0B66  46          	ld	b,(hl)
2590  0B67  3E 80       	ld	a,0x80
2591  0B69  90          	sub	a, b
2592  0B6A  D2 64 0C    	jp	NC,l_enemy_trip_00114
2593  0B6D  21 00 00    	ld	hl,_tmp
2594  0B70  36 00       	ld	(hl),0x00
2595  0B72  2A 00 00    	ld	hl,(_sprite)
2596  0B75  26 00       	ld	h,0x00
2597  0B77  11 00 00    	ld	de,_col
2598  0B7A  19          	add	hl,de
2599  0B7B  7E          	ld	a,(hl)
2600  0B7C  57          	ld	d,a
2601  0B7D  D6 1B       	sub	a,0x1b
2602  0B7F  20 43       	jr	NZ,l_enemy_trip_00104
2603  0B81  21 00 00    	ld	hl,_tmp
2604  0B84  36 01       	ld	(hl),0x01
2605  0B86  15          	dec	d
2606  0B87  58          	ld	e,b
2607  0B88  D5          	push	de
2608  0B89  AF          	xor	a, a
2609  0B8A  F5          	push	af
2610  0B8B  33          	inc	sp
2611  0B8C  CD 00 00    	call	_NIRVANAP_fillT_callee
2612  0B8F  3E 00       	ld	a,+((_lin) & 0xFF)
2613  0B91  21 00 00    	ld	hl,_sprite
2614  0B94  86          	add	a, (hl)
2615  0B95  4F          	ld	c,a
2616  0B96  3E 00       	ld	a,+((_lin) / 256)
2617  0B98  CE 00       	adc	a,0x00
2618  0B9A  47          	ld	b,a
2619  0B9B  3E 10       	ld	a,0x10
2620  0B9D  02          	ld	(bc),a
2621  0B9E  3E 00       	ld	a,+((_col) & 0xFF)
2622  0BA0  86          	add	a, (hl)
2623  0BA1  4F          	ld	c,a
2624  0BA2  3E 00       	ld	a,+((_col) / 256)
2625  0BA4  CE 00       	adc	a,0x00
2626  0BA6  47          	ld	b,a
2627  0BA7  3E 1A       	ld	a,0x1a
2628  0BA9  02          	ld	(bc),a
2629  0BAA  21 00 00    	ld	hl,_s_state
2630  0BAD  CB DE       	set	3, (hl)
2631  0BAF  CB 96       	res	2, (hl)
2632  0BB1  CB 86       	res	0, (hl)
2633  0BB3  CD 00 00    	call	_sound_enter_enemy
2634  0BB6  CD 00 00    	call	_ay_is_playing
2635  0BB9  7D          	ld	a, l
2636  0BBA  D6 02       	sub	a,0x02
2637  0BBC  30 06       	jr	NC,l_enemy_trip_00104
2638  0BBE  21 00 00    	ld	hl,_ay_effect_04
2639  0BC1  CD 00 00    	call	_ay_fx_play
2640  0BC4              l_enemy_trip_00104:
2641  0BC4  2A 00 00    	ld	hl,(_sprite)
2642  0BC7  26 00       	ld	h,0x00
2643  0BC9  01 00 00    	ld	bc,_col
2644  0BCC  09          	add	hl,bc
2645  0BCD  7E          	ld	a,(hl)
2646  0BCE  47          	ld	b,a
2647  0BCF  D6 03       	sub	a,0x03
2648  0BD1  20 4C       	jr	NZ,l_enemy_trip_00108
2649  0BD3  21 00 00    	ld	hl,_tmp
2650  0BD6  36 01       	ld	(hl),0x01
2651  0BD8  04          	inc	b
2652  0BD9  2A 00 00    	ld	hl,(_sprite)
2653  0BDC  26 00       	ld	h,0x00
2654  0BDE  11 00 00    	ld	de,_lin
2655  0BE1  19          	add	hl,de
2656  0BE2  4E          	ld	c, (hl)
2657  0BE3  C5          	push	bc
2658  0BE4  AF          	xor	a, a
2659  0BE5  F5          	push	af
2660  0BE6  33          	inc	sp
2661  0BE7  CD 00 00    	call	_NIRVANAP_fillT_callee
2662  0BEA  3E 00       	ld	a,+((_lin) & 0xFF)
2663  0BEC  21 00 00    	ld	hl,_sprite
2664  0BEF  86          	add	a, (hl)
2665  0BF0  4F          	ld	c,a
2666  0BF1  3E 00       	ld	a,+((_lin) / 256)
2667  0BF3  CE 00       	adc	a,0x00
2668  0BF5  47          	ld	b,a
2669  0BF6  3E 10       	ld	a,0x10
2670  0BF8  02          	ld	(bc),a
2671  0BF9  3E 00       	ld	a,+((_col) & 0xFF)
2672  0BFB  86          	add	a, (hl)
2673  0BFC  4F          	ld	c,a
2674  0BFD  3E 00       	ld	a,+((_col) / 256)
2675  0BFF  CE 00       	adc	a,0x00
2676  0C01  47          	ld	b,a
2677  0C02  3E 04       	ld	a,0x04
2678  0C04  02          	ld	(bc),a
2679  0C05  21 00 00    	ld	hl,_s_state
2680  0C08  CB D6       	set	2, (hl)
2681  0C0A  CB 9E       	res	3, (hl)
2682  0C0C  CB 86       	res	0, (hl)
2683  0C0E  CD 00 00    	call	_sound_enter_enemy
2684  0C11  CD 00 00    	call	_ay_is_playing
2685  0C14  7D          	ld	a, l
2686  0C15  D6 02       	sub	a,0x02
2687  0C17  30 06       	jr	NC,l_enemy_trip_00108
2688  0C19  21 00 00    	ld	hl,_ay_effect_04
2689  0C1C  CD 00 00    	call	_ay_fx_play
2690  0C1F              l_enemy_trip_00108:
2691  0C1F  3A 00 00    	ld	a,(_tmp)
2692  0C22  B7          	or	a, a
2693  0C23  C8          	ret	Z
2694  0C24  2A 00 00    	ld	hl,(_sprite)
2695  0C27  26 00       	ld	h,0x00
2696  0C29  01 00 00    	ld	bc,_class
2697  0C2C  09          	add	hl,bc
2698  0C2D  4E          	ld	c,(hl)
2699  0C2E  3E 03       	ld	a,0x03
2700  0C30  91          	sub	a,c
2701  0C31  D8          	ret	C
2702  0C32  3E 00       	ld	a,+((_colint) & 0xFF)
2703  0C34  21 00 00    	ld	hl,_sprite
2704  0C37  86          	add	a, (hl)
2705  0C38  4F          	ld	c,a
2706  0C39  3E 00       	ld	a,+((_colint) / 256)
2707  0C3B  CE 00       	adc	a,0x00
2708  0C3D  47          	ld	b,a
2709  0C3E  AF          	xor	a, a
2710  0C3F  02          	ld	(bc),a
2711  0C40  3E 00       	ld	a,+((_state) & 0xFF)
2712  0C42  86          	add	a, (hl)
2713  0C43  4F          	ld	c,a
2714  0C44  3E 00       	ld	a,+((_state) / 256)
2715  0C46  CE 00       	adc	a,0x00
2716  0C48  47          	ld	b,a
2717  0C49  3A 00 00    	ld	a,(_s_state)
2718  0C4C  02          	ld	(bc),a
2719  0C4D  3E 00       	ld	a,+((_tile) & 0xFF)
2720  0C4F  21 00 00    	ld	hl,_sprite
2721  0C52  86          	add	a, (hl)
2722  0C53  4F          	ld	c,a
2723  0C54  3E 00       	ld	a,+((_tile) / 256)
2724  0C56  CE 00       	adc	a,0x00
2725  0C58  47          	ld	b,a
2726  0C59  6E          	ld	l,(hl)
2727  0C5A  C5          	push	bc
2728  0C5B  CD 00 00    	call	_spr_tile
2729  0C5E  C1          	pop	bc
2730  0C5F  7D          	ld	a, l
2731  0C60  02          	ld	(bc),a
2732  0C61  CD 00 00    	call	_spr_set_fall
2733  0C64              l_enemy_trip_00114:
2734  0C64  C9          	ret
2735  0C65              	SECTION code_compiler
2736  0C65              ;	---------------------------------
2737  0C65              ; Function enemy_standard_hit
2738  0C65              ; ---------------------------------
2739  0C65              _enemy_standard_hit:
2740  0C65  3A 00 00    	ld	a,(_sprite)
2741  0C68  C6 00       	add	a,+((_state) & 0xFF)
2742  0C6A  4F          	ld	c,a
2743  0C6B  3E 00       	ld	a,+((_state) / 256)
2744  0C6D  CE 00       	adc	a,0x00
2745  0C6F  47          	ld	b,a
2746  0C70  0A          	ld	a,(bc)
2747  0C71  07          	rlca
2748  0C72  38 23       	jr	C,l_enemy_standard_hit_00102
2749  0C74  2A 00 00    	ld	hl,(_game_time_flipped)
2750  0C77  11 CE FF    	ld	de,0xffce
2751  0C7A  19          	add	hl,de
2752  0C7B  EB          	ex	de,hl
2753  0C7C  2A 00 00    	ld	hl,(_sprite)
2754  0C7F  26 00       	ld	h,0x00
2755  0C81  29          	add	hl, hl
2756  0C82  01 00 00    	ld	bc,_spr_timer
2757  0C85  09          	add	hl,bc
2758  0C86  4E          	ld	c,(hl)
2759  0C87  23          	inc	hl
2760  0C88  46          	ld	b,(hl)
2761  0C89  D5          	push	de
2762  0C8A  C5          	push	bc
2763  0C8B  CD 00 00    	call	_game_check_time
2764  0C8E  F1          	pop	af
2765  0C8F  F1          	pop	af
2766  0C90  7D          	ld	a,l
2767  0C91  B7          	or	a, a
2768  0C92  28 03       	jr	Z,l_enemy_standard_hit_00102
2769  0C94  CD D0 0C    	call	_enemy_evolve
2770  0C97              l_enemy_standard_hit_00102:
2771  0C97  01 00 00    	ld	bc,_spr_timer+0
2772  0C9A  2A 00 00    	ld	hl,(_sprite)
2773  0C9D  26 00       	ld	h,0x00
2774  0C9F  29          	add	hl, hl
2775  0CA0  09          	add	hl,bc
2776  0CA1  4E          	ld	c,(hl)
2777  0CA2  23          	inc	hl
2778  0CA3  46          	ld	b,(hl)
2779  0CA4  2A 00 00    	ld	hl,(_game_time_flipped)
2780  0CA7  E5          	push	hl
2781  0CA8  C5          	push	bc
2782  0CA9  CD 00 00    	call	_game_check_time
2783  0CAC  F1          	pop	af
2784  0CAD  F1          	pop	af
2785  0CAE  7D          	ld	a,l
2786  0CAF  B7          	or	a, a
2787  0CB0  C8          	ret	Z
2788  0CB1  3A 00 00    	ld	a,(_sprite)
2789  0CB4  32 00 00    	ld	(_enemies),a
2790  0CB7  2A 00 00    	ld	hl,(_sprite)
2791  0CBA  CD 00 00    	call	_spr_tile
2792  0CBD  CD 76 04    	call	_enemy_flip
2793  0CC0  3A 00 00    	ld	a,(_sprite)
2794  0CC3  C6 00       	add	a,+((_state) & 0xFF)
2795  0CC5  4F          	ld	c,a
2796  0CC6  3E 00       	ld	a,+((_state) / 256)
2797  0CC8  CE 00       	adc	a,0x00
2798  0CCA  47          	ld	b,a
2799  0CCB  0A          	ld	a,(bc)
2800  0CCC  32 00 00    	ld	(_s_state),a
2801  0CCF  C9          	ret
2802  0CD0              	SECTION code_compiler
2803  0CD0              ;	---------------------------------
2804  0CD0              ; Function enemy_evolve
2805  0CD0              ; ---------------------------------
2806  0CD0              _enemy_evolve:
2807  0CD0  2A 00 00    	ld	hl,(_sprite)
2808  0CD3  26 00       	ld	h,0x00
2809  0CD5  01 00 00    	ld	bc,_class
2810  0CD8  09          	add	hl,bc
2811  0CD9  7E          	ld	a,(hl)
2812  0CDA  4F          	ld	c,a
2813  0CDB  3D          	dec	a
2814  0CDC  20 0F       	jr	NZ,l_enemy_evolve_00104
2815  0CDE  21 3C 00    	ld	hl,0x003c
2816  0CE1  E5          	push	hl
2817  0CE2  3E 02       	ld	a,0x02
2818  0CE4  F5          	push	af
2819  0CE5  33          	inc	sp
2820  0CE6  CD 2F 0D    	call	_enemy_upgrade
2821  0CE9  F1          	pop	af
2822  0CEA  33          	inc	sp
2823  0CEB  18 12       	jr	l_enemy_evolve_00105
2824  0CED              l_enemy_evolve_00104:
2825  0CED  79          	ld	a,c
2826  0CEE  D6 02       	sub	a,0x02
2827  0CF0  20 0D       	jr	NZ,l_enemy_evolve_00105
2828  0CF2  21 48 00    	ld	hl,0x0048
2829  0CF5  E5          	push	hl
2830  0CF6  3E 03       	ld	a,0x03
2831  0CF8  F5          	push	af
2832  0CF9  33          	inc	sp
2833  0CFA  CD 2F 0D    	call	_enemy_upgrade
2834  0CFD  F1          	pop	af
2835  0CFE  33          	inc	sp
2836  0CFF              l_enemy_evolve_00105:
2837  0CFF  2A 00 00    	ld	hl,(_sprite)
2838  0D02  26 00       	ld	h,0x00
2839  0D04  01 00 00    	ld	bc,_class
2840  0D07  09          	add	hl,bc
2841  0D08  7E          	ld	a,(hl)
2842  0D09  4F          	ld	c,a
2843  0D0A  D6 04       	sub	a,0x04
2844  0D0C  20 0F       	jr	NZ,l_enemy_evolve_00109
2845  0D0E  21 60 00    	ld	hl,0x0060
2846  0D11  E5          	push	hl
2847  0D12  3E 05       	ld	a,0x05
2848  0D14  F5          	push	af
2849  0D15  33          	inc	sp
2850  0D16  CD 2F 0D    	call	_enemy_upgrade
2851  0D19  F1          	pop	af
2852  0D1A  33          	inc	sp
2853  0D1B  18 11       	jr	l_enemy_evolve_00111
2854  0D1D              l_enemy_evolve_00109:
2855  0D1D  79          	ld	a,c
2856  0D1E  D6 05       	sub	a,0x05
2857  0D20  C0          	ret	NZ
2858  0D21  21 6C 00    	ld	hl,0x006c
2859  0D24  E5          	push	hl
2860  0D25  3E 06       	ld	a,0x06
2861  0D27  F5          	push	af
2862  0D28  33          	inc	sp
2863  0D29  CD 2F 0D    	call	_enemy_upgrade
2864  0D2C  F1          	pop	af
2865  0D2D  33          	inc	sp
2866  0D2E              l_enemy_evolve_00111:
2867  0D2E  C9          	ret
2868  0D2F              	SECTION code_compiler
2869  0D2F              ;	---------------------------------
2870  0D2F              ; Function enemy_upgrade
2871  0D2F              ; ---------------------------------
2872  0D2F              _enemy_upgrade:
2873  0D2F  CD 00 00    	call	___sdcc_enter_ix
2874  0D32  3E 00       	ld	a,+((_class) & 0xFF)
2875  0D34  21 00 00    	ld	hl,_sprite
2876  0D37  86          	add	a, (hl)
2877  0D38  4F          	ld	c,a
2878  0D39  3E 00       	ld	a,+((_class) / 256)
2879  0D3B  CE 00       	adc	a,0x00
2880  0D3D  47          	ld	b,a
2881  0D3E  DD 7E 04    	ld	a,(ix+4)
2882  0D41  02          	ld	(bc),a
2883  0D42  3E 00       	ld	a,+((_tile) & 0xFF)
2884  0D44  86          	add	a, (hl)
2885  0D45  4F          	ld	c,a
2886  0D46  3E 00       	ld	a,+((_tile) / 256)
2887  0D48  CE 00       	adc	a,0x00
2888  0D4A  47          	ld	b,a
2889  0D4B  DD 7E 05    	ld	a,(ix+5)
2890  0D4E  C6 06       	add	a,0x06
2891  0D50  02          	ld	(bc),a
2892  0D51  3E 00       	ld	a,+((_state) & 0xFF)
2893  0D53  86          	add	a, (hl)
2894  0D54  4F          	ld	c,a
2895  0D55  3E 00       	ld	a,+((_state) / 256)
2896  0D57  CE 00       	adc	a,0x00
2897  0D59  47          	ld	b,a
2898  0D5A  0A          	ld	a,(bc)
2899  0D5B  CB FF       	set	7, a
2900  0D5D  02          	ld	(bc),a
2901  0D5E  DD E1       	pop	ix
2902  0D60  C9          	ret
2903  0D61              	SECTION code_compiler
2904  0D61              ;	---------------------------------
2905  0D61              ; Function enemy_walk
2906  0D61              ; ---------------------------------
2907  0D61              _enemy_walk:
2908  0D61  3A 00 00    	ld	a,(_s_state)
2909  0D64  0F          	rrca
2910  0D65  38 49       	jr	C,l_enemy_walk_00106
2911  0D67  3A 00 00    	ld	a,(_s_state)
2912  0D6A  E6 02       	and	a,0x02
2913  0D6C  20 42       	jr	NZ,l_enemy_walk_00106
2914  0D6E  3A 00 00    	ld	a,(_sprite)
2915  0D71  C6 00       	add	a,+((_col) & 0xFF)
2916  0D73  4F          	ld	c,a
2917  0D74  3E 00       	ld	a,+((_col) / 256)
2918  0D76  CE 00       	adc	a,0x00
2919  0D78  47          	ld	b,a
2920  0D79  0A          	ld	a,(bc)
2921  0D7A  57          	ld	d,a
2922  0D7B  CB 47       	bit	0,a
2923  0D7D  28 14       	jr	Z,l_enemy_walk_00102
2924  0D7F  3A 00 00    	ld	a,(_s_state)
2925  0D82  E6 10       	and	a,0x10
2926  0D84  20 0D       	jr	NZ,l_enemy_walk_00102
2927  0D86  21 00 00    	ld	hl,0x0000
2928  0D89  22 00 00    	ld	(_index_d),hl
2929  0D8C  21 00 00    	ld	hl,_tmp
2930  0D8F  36 00       	ld	(hl),0x00
2931  0D91  18 42       	jr	l_enemy_walk_00107
2932  0D93              l_enemy_walk_00102:
2933  0D93  3A 00 00    	ld	a,(_sprite)
2934  0D96  C6 00       	add	a,+((_lin) & 0xFF)
2935  0D98  4F          	ld	c,a
2936  0D99  3E 00       	ld	a,+((_lin) / 256)
2937  0D9B  CE 00       	adc	a,0x00
2938  0D9D  47          	ld	b,a
2939  0D9E  0A          	ld	a,(bc)
2940  0D9F  C6 10       	add	a,0x10
2941  0DA1  5F          	ld	e, a
2942  0DA2  D5          	push	de
2943  0DA3  CD 00 00    	call	_game_calc_index
2944  0DA6  F1          	pop	af
2945  0DA7  CD 00 00    	call	_game_check_maze
2946  0DAA  7D          	ld	a,l
2947  0DAB  32 00 00    	ld	(_tmp),a
2948  0DAE  18 25       	jr	l_enemy_walk_00107
2949  0DB0              l_enemy_walk_00106:
2950  0DB0  3E 00       	ld	a,+((_col) & 0xFF)
2951  0DB2  21 00 00    	ld	hl,_sprite
2952  0DB5  86          	add	a, (hl)
2953  0DB6  4F          	ld	c,a
2954  0DB7  3E 00       	ld	a,+((_col) / 256)
2955  0DB9  CE 00       	adc	a,0x00
2956  0DBB  47          	ld	b,a
2957  0DBC  0A          	ld	a,(bc)
2958  0DBD  57          	ld	d,a
2959  0DBE  4E          	ld	c,(hl)
2960  0DBF  06 00       	ld	b,0x00
2961  0DC1  21 00 00    	ld	hl,_lin
2962  0DC4  09          	add	hl,bc
2963  0DC5  7E          	ld	a,(hl)
2964  0DC6  C6 10       	add	a,0x10
2965  0DC8  5F          	ld	e, a
2966  0DC9  D5          	push	de
2967  0DCA  CD 00 00    	call	_game_calc_index
2968  0DCD  F1          	pop	af
2969  0DCE  CD 00 00    	call	_game_check_maze
2970  0DD1  7D          	ld	a,l
2971  0DD2  32 00 00    	ld	(_tmp),a
2972  0DD5              l_enemy_walk_00107:
2973  0DD5  3A 00 00    	ld	a,(_tmp)
2974  0DD8  B7          	or	a, a
2975  0DD9  CA 75 0E    	jp	Z,l_enemy_walk_00133
2976  0DDC  3A 00 00    	ld	a,(_s_state)
2977  0DDF  0F          	rrca
2978  0DE0  38 05       	jr	C,l_enemy_walk_00110
2979  0DE2  21 00 00    	ld	hl,_s_state
2980  0DE5  CB CE       	set	1, (hl)
2981  0DE7              l_enemy_walk_00110:
2982  0DE7  3E 00       	ld	a,+((_jump_lin) & 0xFF)
2983  0DE9  21 00 00    	ld	hl,_sprite
2984  0DEC  86          	add	a, (hl)
2985  0DED  4F          	ld	c,a
2986  0DEE  3E 00       	ld	a,+((_jump_lin) / 256)
2987  0DF0  CE 00       	adc	a,0x00
2988  0DF2  47          	ld	b,a
2989  0DF3  0A          	ld	a,(bc)
2990  0DF4  B7          	or	a, a
2991  0DF5  20 09       	jr	NZ,l_enemy_walk_00112
2992  0DF7  5E          	ld	e,(hl)
2993  0DF8  16 00       	ld	d,0x00
2994  0DFA  21 00 00    	ld	hl,_lin
2995  0DFD  19          	add	hl,de
2996  0DFE  7E          	ld	a,(hl)
2997  0DFF  02          	ld	(bc),a
2998  0E00              l_enemy_walk_00112:
2999  0E00  3A 00 00    	ld	a,(_s_state)
3000  0E03  E6 02       	and	a,0x02
3001  0E05  28 11       	jr	Z,l_enemy_walk_00114
3002  0E07  3A 00 00    	ld	a,(_sprite)
3003  0E0A  C6 00       	add	a,+((_lin) & 0xFF)
3004  0E0C  4F          	ld	c,a
3005  0E0D  3E 00       	ld	a,+((_lin) / 256)
3006  0E0F  CE 00       	adc	a,0x00
3007  0E11  47          	ld	b,a
3008  0E12  0A          	ld	a,(bc)
3009  0E13  C6 02       	add	a,0x02
3010  0E15  02          	ld	(bc),a
3011  0E16  18 0F       	jr	l_enemy_walk_00115
3012  0E18              l_enemy_walk_00114:
3013  0E18  3A 00 00    	ld	a,(_sprite)
3014  0E1B  C6 00       	add	a,+((_lin) & 0xFF)
3015  0E1D  4F          	ld	c,a
3016  0E1E  3E 00       	ld	a,+((_lin) / 256)
3017  0E20  CE 00       	adc	a,0x00
3018  0E22  47          	ld	b,a
3019  0E23  0A          	ld	a,(bc)
3020  0E24  C6 FE       	add	a,0xfe
3021  0E26  02          	ld	(bc),a
3022  0E27              l_enemy_walk_00115:
3023  0E27  2A 00 00    	ld	hl,(_sprite)
3024  0E2A  26 00       	ld	h,0x00
3025  0E2C  01 00 00    	ld	bc,_class
3026  0E2F  09          	add	hl,bc
3027  0E30  7E          	ld	a,(hl)
3028  0E31  D6 09       	sub	a,0x09
3029  0E33  CA 3A 0F    	jp	Z,l_enemy_walk_00135
3030  0E36  3E 00       	ld	a,+((_sprite_speed_alt) & 0xFF)
3031  0E38  21 00 00    	ld	hl,_sprite
3032  0E3B  86          	add	a, (hl)
3033  0E3C  4F          	ld	c,a
3034  0E3D  3E 00       	ld	a,+((_sprite_speed_alt) / 256)
3035  0E3F  CE 00       	adc	a,0x00
3036  0E41  47          	ld	b,a
3037  0E42  3E 01       	ld	a,0x01
3038  0E44  02          	ld	(bc),a
3039  0E45  3E 00       	ld	a,+((_lin) & 0xFF)
3040  0E47  86          	add	a, (hl)
3041  0E48  4F          	ld	c,a
3042  0E49  3E 00       	ld	a,+((_lin) / 256)
3043  0E4B  CE 00       	adc	a,0x00
3044  0E4D  47          	ld	b,a
3045  0E4E  0A          	ld	a,(bc)
3046  0E4F  4F          	ld	c,a
3047  0E50  06 00       	ld	b,0x00
3048  0E52  5E          	ld	e,(hl)
3049  0E53  50          	ld	d,b
3050  0E54  21 00 00    	ld	hl,_jump_lin
3051  0E57  19          	add	hl,de
3052  0E58  5E          	ld	e, (hl)
3053  0E59  16 00       	ld	d,0x00
3054  0E5B  79          	ld	a,c
3055  0E5C  93          	sub	a, e
3056  0E5D  4F          	ld	c,a
3057  0E5E  78          	ld	a,b
3058  0E5F  9A          	sbc	a, d
3059  0E60  47          	ld	b,a
3060  0E61  3E 08       	ld	a,0x08
3061  0E63  B9          	cp	a, c
3062  0E64  3E 00       	ld	a,0x00
3063  0E66  98          	sbc	a, b
3064  0E67  E2 6C 0E    	jp	PO, l_enemy_walk_00212
3065  0E6A  EE 80       	xor	a,0x80
3066  0E6C              l_enemy_walk_00212:
3067  0E6C  FA 3A 0F    	jp	M,l_enemy_walk_00135
3068  0E6F  CD 00 00    	call	_spr_move_horizontal
3069  0E72  C3 3A 0F    	jp	l_enemy_walk_00135
3070  0E75              l_enemy_walk_00133:
3071  0E75  3A 00 00    	ld	a,(_s_state)
3072  0E78  E6 02       	and	a,0x02
3073  0E7A  28 1E       	jr	Z,l_enemy_walk_00121
3074  0E7C  21 00 00    	ld	hl,_s_state
3075  0E7F  CB 8E       	res	1, (hl)
3076  0E81  3E 00       	ld	a,+((_jump_lin) & 0xFF)
3077  0E83  21 00 00    	ld	hl,_sprite
3078  0E86  86          	add	a, (hl)
3079  0E87  4F          	ld	c,a
3080  0E88  3E 00       	ld	a,+((_jump_lin) / 256)
3081  0E8A  CE 00       	adc	a,0x00
3082  0E8C  47          	ld	b,a
3083  0E8D  AF          	xor	a, a
3084  0E8E  02          	ld	(bc),a
3085  0E8F  3E 00       	ld	a,+((_sprite_speed_alt) & 0xFF)
3086  0E91  86          	add	a, (hl)
3087  0E92  4F          	ld	c,a
3088  0E93  3E 00       	ld	a,+((_sprite_speed_alt) / 256)
3089  0E95  CE 00       	adc	a,0x00
3090  0E97  47          	ld	b,a
3091  0E98  AF          	xor	a, a
3092  0E99  02          	ld	(bc),a
3093  0E9A              l_enemy_walk_00121:
3094  0E9A  3A 00 00    	ld	a,(_s_state)
3095  0E9D  E6 10       	and	a,0x10
3096  0E9F  20 41       	jr	NZ,l_enemy_walk_00125
3097  0EA1  3A 00 00    	ld	a,(_sprite)
3098  0EA4  C6 00       	add	a,+((_state_a) & 0xFF)
3099  0EA6  4F          	ld	c,a
3100  0EA7  3E 00       	ld	a,+((_state_a) / 256)
3101  0EA9  CE 00       	adc	a,0x00
3102  0EAB  47          	ld	b,a
3103  0EAC  0A          	ld	a,(bc)
3104  0EAD  CB 4F       	bit	1, a
3105  0EAF  20 31       	jr	NZ,l_enemy_walk_00125
3106  0EB1  01 00 00    	ld	bc,_spr_timer_c+0
3107  0EB4  2A 00 00    	ld	hl,(_sprite)
3108  0EB7  26 00       	ld	h,0x00
3109  0EB9  29          	add	hl, hl
3110  0EBA  09          	add	hl,bc
3111  0EBB  5E          	ld	e,(hl)
3112  0EBC  23          	inc	hl
3113  0EBD  56          	ld	d,(hl)
3114  0EBE  C5          	push	bc
3115  0EBF  21 05 00    	ld	hl,0x0005
3116  0EC2  E5          	push	hl
3117  0EC3  D5          	push	de
3118  0EC4  CD 00 00    	call	_game_check_time
3119  0EC7  F1          	pop	af
3120  0EC8  F1          	pop	af
3121  0EC9  C1          	pop	bc
3122  0ECA  7D          	ld	a,l
3123  0ECB  B7          	or	a, a
3124  0ECC  28 11       	jr	Z,l_enemy_walk_00123
3125  0ECE  2A 00 00    	ld	hl,(_sprite)
3126  0ED1  26 00       	ld	h,0x00
3127  0ED3  29          	add	hl, hl
3128  0ED4  09          	add	hl,bc
3129  0ED5  ED 5B 00 00 	ld	de,(_curr_time)
3130  0ED9  73          	ld	(hl),e
3131  0EDA  23          	inc	hl
3132  0EDB  72          	ld	(hl),d
3133  0EDC  CD 51 00    	call	_enemy_collition
3134  0EDF              l_enemy_walk_00123:
3135  0EDF  CD 00 00    	call	_spr_move_horizontal
3136  0EE2              l_enemy_walk_00125:
3137  0EE2  3A 00 00    	ld	a,(_sprite)
3138  0EE5  C6 00       	add	a,+((_state_a) & 0xFF)
3139  0EE7  4F          	ld	c,a
3140  0EE8  3E 00       	ld	a,+((_state_a) / 256)
3141  0EEA  CE 00       	adc	a,0x00
3142  0EEC  47          	ld	b,a
3143  0EED  0A          	ld	a,(bc)
3144  0EEE  CB 4F       	bit	1, a
3145  0EF0  28 48       	jr	Z,l_enemy_walk_00135
3146  0EF2  01 00 00    	ld	bc,_spr_timer+0
3147  0EF5  2A 00 00    	ld	hl,(_sprite)
3148  0EF8  26 00       	ld	h,0x00
3149  0EFA  29          	add	hl, hl
3150  0EFB  09          	add	hl,bc
3151  0EFC  ED 5B 00 00 	ld	de,(_curr_time)
3152  0F00  73          	ld	(hl),e
3153  0F01  23          	inc	hl
3154  0F02  72          	ld	(hl),d
3155  0F03  3A 00 00    	ld	a,(_sprite)
3156  0F06  C6 00       	add	a,+((_colint) & 0xFF)
3157  0F08  4F          	ld	c,a
3158  0F09  3E 00       	ld	a,+((_colint) / 256)
3159  0F0B  CE 00       	adc	a,0x00
3160  0F0D  47          	ld	b,a
3161  0F0E  0A          	ld	a,(bc)
3162  0F0F  5F          	ld	e,a
3163  0F10  D6 02       	sub	a,0x02
3164  0F12  30 05       	jr	NC,l_enemy_walk_00128
3165  0F14  1C          	inc	e
3166  0F15  7B          	ld	a,e
3167  0F16  02          	ld	(bc),a
3168  0F17  18 21       	jr	l_enemy_walk_00135
3169  0F19              l_enemy_walk_00128:
3170  0F19  2A 00 00    	ld	hl,(_sprite)
3171  0F1C  26 00       	ld	h,0x00
3172  0F1E  01 00 00    	ld	bc,_state_a
3173  0F21  09          	add	hl,bc
3174  0F22  7E          	ld	a,(hl)
3175  0F23  E6 FD       	and	a,0xfd
3176  0F25  77          	ld	(hl),a
3177  0F26  3E 00       	ld	a,+((_tile) & 0xFF)
3178  0F28  21 00 00    	ld	hl,_sprite
3179  0F2B  86          	add	a, (hl)
3180  0F2C  4F          	ld	c,a
3181  0F2D  3E 00       	ld	a,+((_tile) / 256)
3182  0F2F  CE 00       	adc	a,0x00
3183  0F31  47          	ld	b,a
3184  0F32  6E          	ld	l,(hl)
3185  0F33  C5          	push	bc
3186  0F34  CD 00 00    	call	_spr_tile
3187  0F37  C1          	pop	bc
3188  0F38  7D          	ld	a, l
3189  0F39  02          	ld	(bc),a
3190  0F3A              l_enemy_walk_00135:
3191  0F3A  C9          	ret
3192  0F3B              	SECTION code_compiler
3193  0F3B              ;	---------------------------------
3194  0F3B              ; Function enemy_init
3195  0F3B              ; ---------------------------------
3196  0F3B              _enemy_init:
3197  0F3B  CD 00 00    	call	___sdcc_enter_ix
3198  0F3E  21 00 00    	ld	hl,_spr_count
3199  0F41  34          	inc	(hl)
3200  0F42  3E 00       	ld	a,+((_class) & 0xFF)
3201  0F44  DD 86 04    	add	a,(ix+4)
3202  0F47  4F          	ld	c,a
3203  0F48  3E 00       	ld	a,+((_class) / 256)
3204  0F4A  CE 00       	adc	a,0x00
3205  0F4C  47          	ld	b,a
3206  0F4D  DD 7E 07    	ld	a,(ix+7)
3207  0F50  02          	ld	(bc),a
3208  0F51  3E 00       	ld	a,+((_lin) & 0xFF)
3209  0F53  DD 86 04    	add	a,(ix+4)
3210  0F56  4F          	ld	c,a
3211  0F57  3E 00       	ld	a,+((_lin) / 256)
3212  0F59  CE 00       	adc	a,0x00
3213  0F5B  47          	ld	b,a
3214  0F5C  DD 7E 05    	ld	a,(ix+5)
3215  0F5F  02          	ld	(bc),a
3216  0F60  3E 00       	ld	a,+((_col) & 0xFF)
3217  0F62  DD 86 04    	add	a,(ix+4)
3218  0F65  4F          	ld	c,a
3219  0F66  3E 00       	ld	a,+((_col) / 256)
3220  0F68  CE 00       	adc	a,0x00
3221  0F6A  47          	ld	b,a
3222  0F6B  DD 7E 06    	ld	a,(ix+6)
3223  0F6E  02          	ld	(bc),a
3224  0F6F  21 00 00    	ld	hl,_tmp
3225  0F72  36 00       	ld	(hl),0x00
3226  0F74  3E 00       	ld	a,+((_state) & 0xFF)
3227  0F76  DD 86 04    	add	a,(ix+4)
3228  0F79  4F          	ld	c,a
3229  0F7A  3E 00       	ld	a,+((_state) / 256)
3230  0F7C  CE 00       	adc	a,0x00
3231  0F7E  47          	ld	b,a
3232  0F7F  AF          	xor	a, a
3233  0F80  02          	ld	(bc),a
3234  0F81  3E 00       	ld	a,+((_state_a) & 0xFF)
3235  0F83  DD 86 04    	add	a,(ix+4)
3236  0F86  5F          	ld	e,a
3237  0F87  3E 00       	ld	a,+((_state_a) / 256)
3238  0F89  CE 00       	adc	a,0x00
3239  0F8B  57          	ld	d,a
3240  0F8C  AF          	xor	a, a
3241  0F8D  12          	ld	(de),a
3242  0F8E  3E 00       	ld	a,+((_jump_lin) & 0xFF)
3243  0F90  DD 86 04    	add	a,(ix+4)
3244  0F93  5F          	ld	e,a
3245  0F94  3E 00       	ld	a,+((_jump_lin) / 256)
3246  0F96  CE 00       	adc	a,0x00
3247  0F98  57          	ld	d,a
3248  0F99  AF          	xor	a, a
3249  0F9A  12          	ld	(de),a
3250  0F9B  0A          	ld	a,(bc)
3251  0F9C  5F          	ld	e,a
3252  0F9D  DD 7E 08    	ld	a,(ix+8)
3253  0FA0  3D          	dec	a
3254  0FA1  20 06       	jr	NZ,l_enemy_init_00102
3255  0FA3  7B          	ld	a,e
3256  0FA4  CB D7       	set	2, a
3257  0FA6  02          	ld	(bc),a
3258  0FA7  18 04       	jr	l_enemy_init_00103
3259  0FA9              l_enemy_init_00102:
3260  0FA9  7B          	ld	a,e
3261  0FAA  CB DF       	set	3, a
3262  0FAC  02          	ld	(bc),a
3263  0FAD              l_enemy_init_00103:
3264  0FAD  0A          	ld	a,(bc)
3265  0FAE  CB CF       	set	1, a
3266  0FB0  02          	ld	(bc),a
3267  0FB1  3E 00       	ld	a,+((_colint) & 0xFF)
3268  0FB3  DD 86 04    	add	a,(ix+4)
3269  0FB6  4F          	ld	c,a
3270  0FB7  3E 00       	ld	a,+((_colint) / 256)
3271  0FB9  CE 00       	adc	a,0x00
3272  0FBB  47          	ld	b,a
3273  0FBC  AF          	xor	a, a
3274  0FBD  02          	ld	(bc),a
3275  0FBE  3E 00       	ld	a,+((_tile) & 0xFF)
3276  0FC0  DD 86 04    	add	a,(ix+4)
3277  0FC3  4F          	ld	c,a
3278  0FC4  3E 00       	ld	a,+((_tile) / 256)
3279  0FC6  CE 00       	adc	a,0x00
3280  0FC8  47          	ld	b,a
3281  0FC9  C5          	push	bc
3282  0FCA  DD 6E 04    	ld	l,(ix+4)
3283  0FCD  CD 00 00    	call	_spr_tile
3284  0FD0  C1          	pop	bc
3285  0FD1  7D          	ld	a, l
3286  0FD2  02          	ld	(bc),a
3287  0FD3  DD 4E 04    	ld	c,(ix+4)
3288  0FD6  06 00       	ld	b,0x00
3289  0FD8  CB 21       	sla	c
3290  0FDA  CB 10       	rl	b
3291  0FDC  21 00 00    	ld	hl,_last_time
3292  0FDF  09          	add	hl,bc
3293  0FE0  AF          	xor	a, a
3294  0FE1  77          	ld	(hl), a
3295  0FE2  23          	inc	hl
3296  0FE3  77          	ld	(hl), a
3297  0FE4  21 00 00    	ld	hl,_spr_timer
3298  0FE7  09          	add	hl,bc
3299  0FE8  ED 5B 00 00 	ld	de,(_curr_time)
3300  0FEC  73          	ld	(hl),e
3301  0FED  23          	inc	hl
3302  0FEE  72          	ld	(hl),d
3303  0FEF  3E 00       	ld	a,+((_sprite_speed_alt) & 0xFF)
3304  0FF1  DD 86 04    	add	a,(ix+4)
3305  0FF4  4F          	ld	c,a
3306  0FF5  3E 00       	ld	a,+((_sprite_speed_alt) / 256)
3307  0FF7  CE 00       	adc	a,0x00
3308  0FF9  47          	ld	b,a
3309  0FFA  AF          	xor	a, a
3310  0FFB  02          	ld	(bc),a
3311  0FFC  DD E1       	pop	ix
3312  0FFE  C9          	ret
3313  0FFF              	SECTION code_compiler
3314  0FFF              ;	---------------------------------
3315  0FFF              ; Function enemy_kill
3316  0FFF              ; ---------------------------------
3317  0FFF              _enemy_kill:
3318  0FFF  CD 00 00    	call	___sdcc_enter_ix
3319  1002  F5          	push	af
3320  1003  3B          	dec	sp
3321  1004  DD 75 FD    	ld	(ix-3),l
3322  1007  76          	halt
3323  1008  CD 00 00    	call	_sound_kill
3324  100B  11 00 00    	ld	de,_state+0
3325  100E  7B          	ld	a,e
3326  100F  21 00 00    	ld	hl,_sprite
3327  1012  86          	add	a, (hl)
3328  1013  4F          	ld	c,a
3329  1014  7A          	ld	a,d
3330  1015  CE 00       	adc	a,0x00
3331  1017  47          	ld	b,a
3332  1018  0A          	ld	a,(bc)
3333  1019  4F          	ld	c,a
3334  101A  DD 6E FD    	ld	l,(ix-3)
3335  101D  26 00       	ld	h,0x00
3336  101F  19          	add	hl,de
3337  1020  7E          	ld	a,(hl)
3338  1021  CB 59       	bit	3, c
3339  1023  28 07       	jr	Z,l_enemy_kill_00102
3340  1025  CB DF       	set	3, a
3341  1027  E6 FB       	and	a,0xfb
3342  1029  77          	ld	(hl),a
3343  102A  18 05       	jr	l_enemy_kill_00103
3344  102C              l_enemy_kill_00102:
3345  102C  CB D7       	set	2, a
3346  102E  E6 F7       	and	a,0xf7
3347  1030  77          	ld	(hl),a
3348  1031              l_enemy_kill_00103:
3349  1031  7E          	ld	a,(hl)
3350  1032  E6 FD       	and	a,0xfd
3351  1034  CB C6       	set	0,(hl)
3352  1036  CB EE       	set	5,(hl)
3353  1038  3E 00       	ld	a,+((_class) & 0xFF)
3354  103A  DD 86 FD    	add	a,(ix-3)
3355  103D  4F          	ld	c,a
3356  103E  3E 00       	ld	a,+((_class) / 256)
3357  1040  CE 00       	adc	a,0x00
3358  1042  47          	ld	b,a
3359  1043  0A          	ld	a,(bc)
3360  1044  D6 09       	sub	a,0x09
3361  1046  20 03       	jr	NZ,l_enemy_kill_00105
3362  1048  3E 01       	ld	a,0x01
3363  104A  02          	ld	(bc),a
3364  104B              l_enemy_kill_00105:
3365  104B  11 00 00    	ld	de,_sprite_speed_alt+0
3366  104E  DD 6E FD    	ld	l,(ix-3)
3367  1051  26 00       	ld	h,0x00
3368  1053  19          	add	hl,de
3369  1054  36 08       	ld	(hl),0x08
3370  1056  3A 00 00    	ld	a,(_hit_count)
3371  1059  3C          	inc	a
3372  105A  21 50 00    	ld	hl,0x0050
3373  105D  18 01       	jr	l_enemy_kill_00145
3374  105F              l_enemy_kill_00144:
3375  105F  29          	add	hl,hl
3376  1060              l_enemy_kill_00145:
3377  1060  3D          	dec	a
3378  1061  20 FC       	jr	NZ,l_enemy_kill_00144
3379  1063  C5          	push	bc
3380  1064  CD 00 00    	call	_player_score_add
3381  1067  C1          	pop	bc
3382  1068  21 00 00    	ld	hl,_hit_count
3383  106B  34          	inc	(hl)
3384  106C  11 00 00    	ld	de,_spr_timer+0
3385  106F  DD 6E FD    	ld	l,(ix-3)
3386  1072  26 00       	ld	h,0x00
3387  1074  29          	add	hl, hl
3388  1075  19          	add	hl,de
3389  1076  DD 75 FE    	ld	(ix-2),l
3390  1079  DD 74 FF    	ld	(ix-1),h
3391  107C  ED 5B 00 00 	ld	de,(_curr_time)
3392  1080  73          	ld	(hl),e
3393  1081  23          	inc	hl
3394  1082  72          	ld	(hl),d
3395  1083  3E 00       	ld	a,+((_jump_lin) & 0xFF)
3396  1085  DD 86 FD    	add	a,(ix-3)
3397  1088  5F          	ld	e,a
3398  1089  3E 00       	ld	a,+((_jump_lin) / 256)
3399  108B  CE 00       	adc	a,0x00
3400  108D  57          	ld	d,a
3401  108E  3E 00       	ld	a,+((_lin) & 0xFF)
3402  1090  DD 86 FD    	add	a,(ix-3)
3403  1093  6F          	ld	l,a
3404  1094  3E 00       	ld	a,+((_lin) / 256)
3405  1096  CE 00       	adc	a,0x00
3406  1098  67          	ld	h,a
3407  1099  7E          	ld	a,(hl)
3408  109A  12          	ld	(de),a
3409  109B  0A          	ld	a,(bc)
3410  109C  4F          	ld	c,a
3411  109D  3E 09       	ld	a,0x09
3412  109F  91          	sub	a, c
3413  10A0  38 0F       	jr	C,l_enemy_kill_00109
3414  10A2  3A 00 00    	ld	a,(_game_type)
3415  10A5  D6 02       	sub	a,0x02
3416  10A7  28 04       	jr	Z,l_enemy_kill_00107
3417  10A9  21 00 00    	ld	hl,_phase_left
3418  10AC  35          	dec	(hl)
3419  10AD              l_enemy_kill_00107:
3420  10AD  21 00 00    	ld	hl,_phase_coins
3421  10B0  34          	inc	(hl)
3422  10B1              l_enemy_kill_00109:
3423  10B1  3A 00 00    	ld	a,(_phase_left)
3424  10B4  B7          	or	a, a
3425  10B5  28 08       	jr	Z,l_enemy_kill_00113
3426  10B7  21 00 00    	ld	hl,_ay_effect_11
3427  10BA  CD 00 00    	call	_ay_fx_play
3428  10BD  18 0F       	jr	l_enemy_kill_00115
3429  10BF              l_enemy_kill_00113:
3430  10BF  CD 00 00    	call	_ay_reset
3431  10C2  3A 00 00    	ld	a,(_game_bonus)
3432  10C5  B7          	or	a, a
3433  10C6  20 06       	jr	NZ,l_enemy_kill_00115
3434  10C8  21 00 00    	ld	hl,_ay_effect_17
3435  10CB  CD 00 00    	call	_ay_fx_play
3436  10CE              l_enemy_kill_00115:
3437  10CE  DD F9       	ld	sp, ix
3438  10D0  DD E1       	pop	ix
3439  10D2  C9          	ret
3440  10D3              	SECTION IGNORE
3441  0000              
