1     0000              MODULE pietro_enemies_c
2     0000              
3     0000              ;--------------------------------------------------------
4     0000              ; File Created by SDCC : free open source ANSI-C Compiler
5     0000              ; Version 3.6.5 #9917 (Mac OS X i386)
6     0000              ;--------------------------------------------------------
7     0000              ; Processed by Z88DK
8     0000              ;--------------------------------------------------------
9     0000              
10    0000              	EXTERN __divschar
11    0000              	EXTERN __divschar_callee
12    0000              	EXTERN __divsint
13    0000              	EXTERN __divsint_callee
14    0000              	EXTERN __divslong
15    0000              	EXTERN __divslong_callee
16    0000              	EXTERN __divslonglong
17    0000              	EXTERN __divslonglong_callee
18    0000              	EXTERN __divsuchar
19    0000              	EXTERN __divsuchar_callee
20    0000              	EXTERN __divuchar
21    0000              	EXTERN __divuchar_callee
22    0000              	EXTERN __divuint
23    0000              	EXTERN __divuint_callee
24    0000              	EXTERN __divulong
25    0000              	EXTERN __divulong_callee
26    0000              	EXTERN __divulonglong
27    0000              	EXTERN __divulonglong_callee
28    0000              	EXTERN __divuschar
29    0000              	EXTERN __divuschar_callee
30    0000              	EXTERN __modschar
31    0000              	EXTERN __modschar_callee
32    0000              	EXTERN __modsint
33    0000              	EXTERN __modsint_callee
34    0000              	EXTERN __modslong
35    0000              	EXTERN __modslong_callee
36    0000              	EXTERN __modslonglong
37    0000              	EXTERN __modslonglong_callee
38    0000              	EXTERN __modsuchar
39    0000              	EXTERN __modsuchar_callee
40    0000              	EXTERN __moduchar
41    0000              	EXTERN __moduchar_callee
42    0000              	EXTERN __moduint
43    0000              	EXTERN __moduint_callee
44    0000              	EXTERN __modulong
45    0000              	EXTERN __modulong_callee
46    0000              	EXTERN __modulonglong
47    0000              	EXTERN __modulonglong_callee
48    0000              	EXTERN __moduschar
49    0000              	EXTERN __moduschar_callee
50    0000              	EXTERN __mulint
51    0000              	EXTERN __mulint_callee
52    0000              	EXTERN __mullong
53    0000              	EXTERN __mullong_callee
54    0000              	EXTERN __mullonglong
55    0000              	EXTERN __mullonglong_callee
56    0000              	EXTERN __mulschar
57    0000              	EXTERN __mulschar_callee
58    0000              	EXTERN __mulsuchar
59    0000              	EXTERN __mulsuchar_callee
60    0000              	EXTERN __muluschar
61    0000              	EXTERN __muluschar_callee
62    0000              	EXTERN __rlslonglong
63    0000              	EXTERN __rlslonglong_callee
64    0000              	EXTERN __rlulonglong
65    0000              	EXTERN __rlulonglong_callee
66    0000              	EXTERN __rrslonglong
67    0000              	EXTERN __rrslonglong_callee
68    0000              	EXTERN __rrulonglong
69    0000              	EXTERN __rrulonglong_callee
70    0000              	EXTERN ___sdcc_call_hl
71    0000              	EXTERN ___sdcc_call_iy
72    0000              	EXTERN ___sdcc_enter_ix
73    0000              	EXTERN _banked_call
74    0000              	EXTERN _banked_ret
75    0000              	EXTERN ___fs2schar
76    0000              	EXTERN ___fs2schar_callee
77    0000              	EXTERN ___fs2sint
78    0000              	EXTERN ___fs2sint_callee
79    0000              	EXTERN ___fs2slong
80    0000              	EXTERN ___fs2slong_callee
81    0000              	EXTERN ___fs2slonglong
82    0000              	EXTERN ___fs2slonglong_callee
83    0000              	EXTERN ___fs2uchar
84    0000              	EXTERN ___fs2uchar_callee
85    0000              	EXTERN ___fs2uint
86    0000              	EXTERN ___fs2uint_callee
87    0000              	EXTERN ___fs2ulong
88    0000              	EXTERN ___fs2ulong_callee
89    0000              	EXTERN ___fs2ulonglong
90    0000              	EXTERN ___fs2ulonglong_callee
91    0000              	EXTERN ___fsadd
92    0000              	EXTERN ___fsadd_callee
93    0000              	EXTERN ___fsdiv
94    0000              	EXTERN ___fsdiv_callee
95    0000              	EXTERN ___fseq
96    0000              	EXTERN ___fseq_callee
97    0000              	EXTERN ___fsgt
98    0000              	EXTERN ___fsgt_callee
99    0000              	EXTERN ___fslt
100   0000              	EXTERN ___fslt_callee
101   0000              	EXTERN ___fsmul
102   0000              	EXTERN ___fsmul_callee
103   0000              	EXTERN ___fsneq
104   0000              	EXTERN ___fsneq_callee
105   0000              	EXTERN ___fssub
106   0000              	EXTERN ___fssub_callee
107   0000              	EXTERN ___schar2fs
108   0000              	EXTERN ___schar2fs_callee
109   0000              	EXTERN ___sint2fs
110   0000              	EXTERN ___sint2fs_callee
111   0000              	EXTERN ___slong2fs
112   0000              	EXTERN ___slong2fs_callee
113   0000              	EXTERN ___slonglong2fs
114   0000              	EXTERN ___slonglong2fs_callee
115   0000              	EXTERN ___uchar2fs
116   0000              	EXTERN ___uchar2fs_callee
117   0000              	EXTERN ___uint2fs
118   0000              	EXTERN ___uint2fs_callee
119   0000              	EXTERN ___ulong2fs
120   0000              	EXTERN ___ulong2fs_callee
121   0000              	EXTERN ___ulonglong2fs
122   0000              	EXTERN ___ulonglong2fs_callee
123   0000              	EXTERN ____sdcc_2_copy_src_mhl_dst_deix
124   0000              	EXTERN ____sdcc_2_copy_src_mhl_dst_bcix
125   0000              	EXTERN ____sdcc_4_copy_src_mhl_dst_deix
126   0000              	EXTERN ____sdcc_4_copy_src_mhl_dst_bcix
127   0000              	EXTERN ____sdcc_4_copy_src_mhl_dst_mbc
128   0000              	EXTERN ____sdcc_4_ldi_nosave_bc
129   0000              	EXTERN ____sdcc_4_ldi_save_bc
130   0000              	EXTERN ____sdcc_4_push_hlix
131   0000              	EXTERN ____sdcc_4_push_mhl
132   0000              	EXTERN ____sdcc_lib_setmem_hl
133   0000              	EXTERN ____sdcc_ll_add_de_bc_hl
134   0000              	EXTERN ____sdcc_ll_add_de_bc_hlix
135   0000              	EXTERN ____sdcc_ll_add_de_hlix_bc
136   0000              	EXTERN ____sdcc_ll_add_de_hlix_bcix
137   0000              	EXTERN ____sdcc_ll_add_deix_bc_hl
138   0000              	EXTERN ____sdcc_ll_add_deix_hlix
139   0000              	EXTERN ____sdcc_ll_add_hlix_bc_deix
140   0000              	EXTERN ____sdcc_ll_add_hlix_deix_bc
141   0000              	EXTERN ____sdcc_ll_add_hlix_deix_bcix
142   0000              	EXTERN ____sdcc_ll_asr_hlix_a
143   0000              	EXTERN ____sdcc_ll_asr_mbc_a
144   0000              	EXTERN ____sdcc_ll_copy_src_de_dst_hlix
145   0000              	EXTERN ____sdcc_ll_copy_src_de_dst_hlsp
146   0000              	EXTERN ____sdcc_ll_copy_src_deix_dst_hl
147   0000              	EXTERN ____sdcc_ll_copy_src_deix_dst_hlix
148   0000              	EXTERN ____sdcc_ll_copy_src_deixm_dst_hlsp
149   0000              	EXTERN ____sdcc_ll_copy_src_desp_dst_hlsp
150   0000              	EXTERN ____sdcc_ll_copy_src_hl_dst_de
151   0000              	EXTERN ____sdcc_ll_copy_src_hlsp_dst_de
152   0000              	EXTERN ____sdcc_ll_copy_src_hlsp_dst_deixm
153   0000              	EXTERN ____sdcc_ll_lsl_hlix_a
154   0000              	EXTERN ____sdcc_ll_lsl_mbc_a
155   0000              	EXTERN ____sdcc_ll_lsr_hlix_a
156   0000              	EXTERN ____sdcc_ll_lsr_mbc_a
157   0000              	EXTERN ____sdcc_ll_push_hlix
158   0000              	EXTERN ____sdcc_ll_push_mhl
159   0000              	EXTERN ____sdcc_ll_sub_de_bc_hl
160   0000              	EXTERN ____sdcc_ll_sub_de_bc_hlix
161   0000              	EXTERN ____sdcc_ll_sub_de_hlix_bc
162   0000              	EXTERN ____sdcc_ll_sub_de_hlix_bcix
163   0000              	EXTERN ____sdcc_ll_sub_deix_bc_hl
164   0000              	EXTERN ____sdcc_ll_sub_deix_hlix
165   0000              	EXTERN ____sdcc_ll_sub_hlix_bc_deix
166   0000              	EXTERN ____sdcc_ll_sub_hlix_deix_bc
167   0000              	EXTERN ____sdcc_ll_sub_hlix_deix_bcix
168   0000              	EXTERN ____sdcc_load_debc_deix
169   0000              	EXTERN ____sdcc_load_dehl_deix
170   0000              	EXTERN ____sdcc_load_debc_mhl
171   0000              	EXTERN ____sdcc_load_hlde_mhl
172   0000              	EXTERN ____sdcc_store_dehl_bcix
173   0000              	EXTERN ____sdcc_store_debc_hlix
174   0000              	EXTERN ____sdcc_store_debc_mhl
175   0000              	EXTERN ____sdcc_cpu_pop_ei
176   0000              	EXTERN ____sdcc_cpu_pop_ei_jp
177   0000              	EXTERN ____sdcc_cpu_push_di
178   0000              
179   0000              ;--------------------------------------------------------
180   0000              ; Public variables in this module
181   0000              ;--------------------------------------------------------
182   0000              	GLOBAL _enemy_coin2
183   0000              	GLOBAL _enemy_coin1
184   0000              	GLOBAL _enemy_collision
185   0000              	GLOBAL _enemy_collision_turn_dir
186   0000              	GLOBAL _enemy_hit
187   0000              	GLOBAL _enemy_flip_change_dir
188   0000              	GLOBAL _enemy_flip
189   0000              	GLOBAL _enemy_flip_sidestepper
190   0000              	GLOBAL _enemy_turn
191   0000              	GLOBAL _enemy_standard
192   0000              	GLOBAL _enemy_slipice
193   0000              	GLOBAL _enemy_fireball_red
194   0000              	GLOBAL _enemy_fireball_green
195   0000              	GLOBAL _enemy_fighterfly
196   0000              	GLOBAL _enemy_trip
197   0000              	GLOBAL _enemy_trip_move
198   0000              	GLOBAL _enemy_standard_hit
199   0000              	GLOBAL _enemy_evolve
200   0000              	GLOBAL _enemy_upgrade
201   0000              	GLOBAL _enemy_walk
202   0000              	GLOBAL _enemy_init
203   0000              	GLOBAL _enemy_kill
204   0000              ;--------------------------------------------------------
205   0000              ; Externals used
206   0000              ;--------------------------------------------------------
207   0000              	GLOBAL _debug3
208   0000              	GLOBAL _debug2
209   0000              	GLOBAL _debug
210   0000              	GLOBAL _zx_print_str
211   0000              	GLOBAL _zx_print_int
212   0000              	GLOBAL _zx_print_chr
213   0000              	GLOBAL _zx_print_bonus_time
214   0000              	GLOBAL _zx_isr
215   0000              	GLOBAL _z80_otdr_callee
216   0000              	GLOBAL _z80_otdr
217   0000              	GLOBAL _z80_otir_callee
218   0000              	GLOBAL _z80_otir
219   0000              	GLOBAL _z80_outp_callee
220   0000              	GLOBAL _z80_outp
221   0000              	GLOBAL _z80_indr_callee
222   0000              	GLOBAL _z80_indr
223   0000              	GLOBAL _z80_inir_callee
224   0000              	GLOBAL _z80_inir
225   0000              	GLOBAL _z80_inp_fastcall
226   0000              	GLOBAL _z80_inp
227   0000              	GLOBAL _z80_set_int_state_fastcall
228   0000              	GLOBAL _z80_set_int_state
229   0000              	GLOBAL _z80_get_int_state
230   0000              	GLOBAL _z80_delay_tstate_fastcall
231   0000              	GLOBAL _z80_delay_tstate
232   0000              	GLOBAL _z80_delay_ms_fastcall
233   0000              	GLOBAL _z80_delay_ms
234   0000              	GLOBAL _im2_remove_generic_callback_callee
235   0000              	GLOBAL _im2_remove_generic_callback
236   0000              	GLOBAL _im2_prepend_generic_callback_callee
237   0000              	GLOBAL _im2_prepend_generic_callback
238   0000              	GLOBAL _im2_append_generic_callback_callee
239   0000              	GLOBAL _im2_append_generic_callback
240   0000              	GLOBAL _im2_create_generic_isr_8080_callee
241   0000              	GLOBAL _im2_create_generic_isr_8080
242   0000              	GLOBAL _im2_create_generic_isr_callee
243   0000              	GLOBAL _im2_create_generic_isr
244   0000              	GLOBAL _im2_install_isr_callee
245   0000              	GLOBAL _im2_install_isr
246   0000              	GLOBAL _im2_init_fastcall
247   0000              	GLOBAL _im2_init
248   0000              	GLOBAL _zx_pattern_fill_callee
249   0000              	GLOBAL _zx_pattern_fill
250   0000              	GLOBAL _zx_saddrpup_fastcall
251   0000              	GLOBAL _zx_saddrpup
252   0000              	GLOBAL _zx_saddrpright_callee
253   0000              	GLOBAL _zx_saddrpright
254   0000              	GLOBAL _zx_saddrpleft_callee
255   0000              	GLOBAL _zx_saddrpleft
256   0000              	GLOBAL _zx_saddrpdown_fastcall
257   0000              	GLOBAL _zx_saddrpdown
258   0000              	GLOBAL _zx_saddrcup_fastcall
259   0000              	GLOBAL _zx_saddrcup
260   0000              	GLOBAL _zx_saddrcright_fastcall
261   0000              	GLOBAL _zx_saddrcright
262   0000              	GLOBAL _zx_saddrcleft_fastcall
263   0000              	GLOBAL _zx_saddrcleft
264   0000              	GLOBAL _zx_saddrcdown_fastcall
265   0000              	GLOBAL _zx_saddrcdown
266   0000              	GLOBAL _zx_saddr2py_fastcall
267   0000              	GLOBAL _zx_saddr2py
268   0000              	GLOBAL _zx_saddr2px_fastcall
269   0000              	GLOBAL _zx_saddr2px
270   0000              	GLOBAL _zx_saddr2cy_fastcall
271   0000              	GLOBAL _zx_saddr2cy
272   0000              	GLOBAL _zx_saddr2cx_fastcall
273   0000              	GLOBAL _zx_saddr2cx
274   0000              	GLOBAL _zx_saddr2aaddr_fastcall
275   0000              	GLOBAL _zx_saddr2aaddr
276   0000              	GLOBAL _zx_py2saddr_fastcall
277   0000              	GLOBAL _zx_py2saddr
278   0000              	GLOBAL _zx_py2aaddr_fastcall
279   0000              	GLOBAL _zx_py2aaddr
280   0000              	GLOBAL _zx_pxy2saddr_callee
281   0000              	GLOBAL _zx_pxy2saddr
282   0000              	GLOBAL _zx_pxy2aaddr_callee
283   0000              	GLOBAL _zx_pxy2aaddr
284   0000              	GLOBAL _zx_px2bitmask_fastcall
285   0000              	GLOBAL _zx_px2bitmask
286   0000              	GLOBAL _zx_cy2saddr_fastcall
287   0000              	GLOBAL _zx_cy2saddr
288   0000              	GLOBAL _zx_cy2aaddr_fastcall
289   0000              	GLOBAL _zx_cy2aaddr
290   0000              	GLOBAL _zx_cxy2saddr_callee
291   0000              	GLOBAL _zx_cxy2saddr
292   0000              	GLOBAL _zx_cxy2aaddr_callee
293   0000              	GLOBAL _zx_cxy2aaddr
294   0000              	GLOBAL _zx_bitmask2px_fastcall
295   0000              	GLOBAL _zx_bitmask2px
296   0000              	GLOBAL _zx_aaddrcup_fastcall
297   0000              	GLOBAL _zx_aaddrcup
298   0000              	GLOBAL _zx_aaddrcright_fastcall
299   0000              	GLOBAL _zx_aaddrcright
300   0000              	GLOBAL _zx_aaddrcleft_fastcall
301   0000              	GLOBAL _zx_aaddrcleft
302   0000              	GLOBAL _zx_aaddrcdown_fastcall
303   0000              	GLOBAL _zx_aaddrcdown
304   0000              	GLOBAL _zx_aaddr2saddr_fastcall
305   0000              	GLOBAL _zx_aaddr2saddr
306   0000              	GLOBAL _zx_aaddr2py_fastcall
307   0000              	GLOBAL _zx_aaddr2py
308   0000              	GLOBAL _zx_aaddr2px_fastcall
309   0000              	GLOBAL _zx_aaddr2px
310   0000              	GLOBAL _zx_aaddr2cy_fastcall
311   0000              	GLOBAL _zx_aaddr2cy
312   0000              	GLOBAL _zx_aaddr2cx_fastcall
313   0000              	GLOBAL _zx_aaddr2cx
314   0000              	GLOBAL _zx_scroll_wc_up_callee
315   0000              	GLOBAL _zx_scroll_wc_up
316   0000              	GLOBAL _zx_scroll_up_callee
317   0000              	GLOBAL _zx_scroll_up
318   0000              	GLOBAL _zx_cls_wc_callee
319   0000              	GLOBAL _zx_cls_wc
320   0000              	GLOBAL _zx_cls_fastcall
321   0000              	GLOBAL _zx_cls
322   0000              	GLOBAL _zx_border_fastcall
323   0000              	GLOBAL _zx_border
324   0000              	GLOBAL _sound_hit_pow
325   0000              	GLOBAL _sound_hit_brick
326   0000              	GLOBAL _sound_hit_enemy
327   0000              	GLOBAL _sound_kill
328   0000              	GLOBAL _sound_enter_enemy
329   0000              	GLOBAL _sound_coin
330   0000              	GLOBAL _sound_jump
331   0000              	GLOBAL _sound_slide
332   0000              	GLOBAL _spr_mapfix
333   0000              	GLOBAL _spr_kill_all
334   0000              	GLOBAL _spr_collision_check
335   0000              	GLOBAL _spr_calc_hor
336   0000              	GLOBAL _spr_draw_row
337   0000              	GLOBAL _spr_draw_index
338   0000              	GLOBAL _spr_draw_clear
339   0000              	GLOBAL _spr_water_splash_draw
340   0000              	GLOBAL _spr_water_splash_clear
341   0000              	GLOBAL _spr_draw_background
342   0000              	GLOBAL _spr_cortina_brick
343   0000              	GLOBAL _spr_brick_anim
344   0000              	GLOBAL _spr_back_fix
345   0000              	GLOBAL _spr_back_paint
346   0000              	GLOBAL _spr_back_clr
347   0000              	GLOBAL _spr_draw_pow
348   0000              	GLOBAL _spr_tile
349   0000              	GLOBAL _spr_set_fall
350   0000              	GLOBAL _spr_destroy
351   0000              	GLOBAL _spr_check_over
352   0000              	GLOBAL _spr_tile_dir
353   0000              	GLOBAL _spr_anim_kill
354   0000              	GLOBAL _spr_anim_fall
355   0000              	GLOBAL _spr_killed
356   0000              	GLOBAL _spr_redraw
357   0000              	GLOBAL _spr_move_left
358   0000              	GLOBAL _spr_move_right
359   0000              	GLOBAL _spr_move_horizontal
360   0000              	GLOBAL _spr_move_down
361   0000              	GLOBAL _spr_move_up
362   0000              	GLOBAL _spr_chktime
363   0000              	GLOBAL _player_set
364   0000              	GLOBAL _player_move_horizontal
365   0000              	GLOBAL _player_push
366   0000              	GLOBAL _player_hit_brick_clear
367   0000              	GLOBAL _player_lost_life
368   0000              	GLOBAL _player_score_add
369   0000              	GLOBAL _player_coin
370   0000              	GLOBAL _player_hit_pow
371   0000              	GLOBAL _player_hit_brick
372   0000              	GLOBAL _player_move_input
373   0000              	GLOBAL _player_turn
374   0000              	GLOBAL _player_move
375   0000              	GLOBAL _player_restart
376   0000              	GLOBAL _player_kill
377   0000              	GLOBAL _player_check_input
378   0000              	GLOBAL _player_collision
379   0000              	GLOBAL _player_calc_slide
380   0000              	GLOBAL _player_init
381   0000              	GLOBAL _game_joystick_set_menu
382   0000              	GLOBAL _game_joystick_set
383   0000              	GLOBAL _game_joystick_change
384   0000              	GLOBAL _game_hall_print_p2
385   0000              	GLOBAL _game_hall_print_p
386   0000              	GLOBAL _game_hall_edit_p
387   0000              	GLOBAL _game_hall_check
388   0000              	GLOBAL _game_hall_enter_prt
389   0000              	GLOBAL _game_hall_enter_phs
390   0000              	GLOBAL _game_print_header
391   0000              	GLOBAL _game_end
392   0000              	GLOBAL _game_hall_enter
393   0000              	GLOBAL _game_hall_of_fame
394   0000              	GLOBAL _game_score_osd
395   0000              	GLOBAL _game_phase_print_score_back
396   0000              	GLOBAL _game_bonus_clock
397   0000              	GLOBAL _game_bonus_summary_player
398   0000              	GLOBAL _game_bonus_summary
399   0000              	GLOBAL _game_check_time
400   0000              	GLOBAL _game_menu_config
401   0000              	GLOBAL _game_menu
402   0000              	GLOBAL _game_rotate_attrib
403   0000              	GLOBAL _game_colour_message
404   0000              	GLOBAL _game_paint_attrib_lin_h
405   0000              	GLOBAL _game_paint_attrib_lin
406   0000              	GLOBAL _game_paint_attrib
407   0000              	GLOBAL _game_menu_paint
408   0000              	GLOBAL _game_menu_top_paint
409   0000              	GLOBAL _game_menu_handle
410   0000              	GLOBAL _game_menu_e
411   0000              	GLOBAL _game_menu_back
412   0000              	GLOBAL _game_print_score
413   0000              	GLOBAL _game_unfreeze_all
414   0000              	GLOBAL _game_freeze_all
415   0000              	GLOBAL _game_freeze
416   0000              	GLOBAL _game_enemy_add_get_index
417   0000              	GLOBAL _game_enemy_add1
418   0000              	GLOBAL _game_enemy_quota
419   0000              	GLOBAL _game_enemy_rnd
420   0000              	GLOBAL _game_enemy_add
421   0000              	GLOBAL _game_check_floor
422   0000              	GLOBAL _game_check_maze
423   0000              	GLOBAL _game_loop
424   0000              	GLOBAL _game_phase_print
425   0000              	GLOBAL _game_phase_init
426   0000              	GLOBAL _game_phase_calc
427   0000              	GLOBAL _game_start_timer
428   0000              	GLOBAL _game_tick
429   0000              	GLOBAL _game_print_lives
430   0000              	GLOBAL _game_print_footer
431   0000              	GLOBAL _game_calc_index
432   0000              	GLOBAL _game_fill_row
433   0000              	GLOBAL _ay_fx_play
434   0000              	GLOBAL _ay_midi_play
435   0000              	GLOBAL _ay_is_playing
436   0000              	GLOBAL _ay_reset
437   0000              	GLOBAL _enemy_ugly_fix
438   0000              	GLOBAL _in_mouse_kempston_wheel_delta
439   0000              	GLOBAL _in_mouse_kempston_wheel
440   0000              	GLOBAL _in_mouse_kempston_callee
441   0000              	GLOBAL _in_mouse_kempston
442   0000              	GLOBAL _in_mouse_kempston_setpos_callee
443   0000              	GLOBAL _in_mouse_kempston_setpos
444   0000              	GLOBAL _in_mouse_kempston_reset
445   0000              	GLOBAL _in_mouse_kempston_init
446   0000              	GLOBAL _in_mouse_amx_wheel_delta
447   0000              	GLOBAL _in_mouse_amx_wheel
448   0000              	GLOBAL _in_mouse_amx_callee
449   0000              	GLOBAL _in_mouse_amx
450   0000              	GLOBAL _in_mouse_amx_setpos_callee
451   0000              	GLOBAL _in_mouse_amx_setpos
452   0000              	GLOBAL _in_mouse_amx_reset
453   0000              	GLOBAL _in_mouse_amx_init_callee
454   0000              	GLOBAL _in_mouse_amx_init
455   0000              	GLOBAL _in_stick_sinclair2
456   0000              	GLOBAL _in_stick_sinclair1
457   0000              	GLOBAL _in_stick_kempston
458   0000              	GLOBAL _in_stick_fuller
459   0000              	GLOBAL _in_stick_cursor
460   0000              	GLOBAL _in_stick_keyboard_fastcall
461   0000              	GLOBAL _in_stick_keyboard
462   0000              	GLOBAL _in_wait_nokey
463   0000              	GLOBAL _in_wait_key
464   0000              	GLOBAL _in_test_key
465   0000              	GLOBAL _in_pause_fastcall
466   0000              	GLOBAL _in_pause
467   0000              	GLOBAL _in_key_scancode_fastcall
468   0000              	GLOBAL _in_key_scancode
469   0000              	GLOBAL _in_key_pressed_fastcall
470   0000              	GLOBAL _in_key_pressed
471   0000              	GLOBAL _in_inkey
472   0000              	GLOBAL _NIRVANAP_drawTW_raw_callee
473   0000              	GLOBAL _NIRVANAP_drawTW_raw
474   0000              	GLOBAL _NIRVANAP_drawTW_callee
475   0000              	GLOBAL _NIRVANAP_drawTW
476   0000              	GLOBAL _NIRVANAP_drawW_raw_callee
477   0000              	GLOBAL _NIRVANAP_drawW_raw
478   0000              	GLOBAL _NIRVANAP_drawW_callee
479   0000              	GLOBAL _NIRVANAP_drawW
480   0000              	GLOBAL _NIRVANAP_spriteT_callee
481   0000              	GLOBAL _NIRVANAP_spriteT
482   0000              	GLOBAL _NIRVANAP_fillC_callee
483   0000              	GLOBAL _NIRVANAP_fillC
484   0000              	GLOBAL _NIRVANAP_readC_callee
485   0000              	GLOBAL _NIRVANAP_readC
486   0000              	GLOBAL _NIRVANAP_paintC_callee
487   0000              	GLOBAL _NIRVANAP_paintC
488   0000              	GLOBAL _NIRVANAP_printC_callee
489   0000              	GLOBAL _NIRVANAP_printC
490   0000              	GLOBAL _NIRVANAP_fillT_raw_callee
491   0000              	GLOBAL _NIRVANAP_fillT_raw
492   0000              	GLOBAL _NIRVANAP_fillT_callee
493   0000              	GLOBAL _NIRVANAP_fillT
494   0000              	GLOBAL _NIRVANAP_drawT_raw_callee
495   0000              	GLOBAL _NIRVANAP_drawT_raw
496   0000              	GLOBAL _NIRVANAP_drawT_callee
497   0000              	GLOBAL _NIRVANAP_drawT
498   0000              	GLOBAL _NIRVANAP_stop
499   0000              	GLOBAL _NIRVANAP_start
500   0000              	GLOBAL _intrinsic_swap_word_32_fastcall
501   0000              	GLOBAL _intrinsic_swap_word_32
502   0000              	GLOBAL _intrinsic_swap_endian_32_fastcall
503   0000              	GLOBAL _intrinsic_swap_endian_32
504   0000              	GLOBAL _intrinsic_swap_endian_16_fastcall
505   0000              	GLOBAL _intrinsic_swap_endian_16
506   0000              	GLOBAL _intrinsic_return_de
507   0000              	GLOBAL _intrinsic_return_bc
508   0000              	GLOBAL _intrinsic_exx
509   0000              	GLOBAL _intrinsic_ex_de_hl
510   0000              	GLOBAL _intrinsic_nop
511   0000              	GLOBAL _intrinsic_im_2
512   0000              	GLOBAL _intrinsic_im_1
513   0000              	GLOBAL _intrinsic_im_0
514   0000              	GLOBAL _intrinsic_retn
515   0000              	GLOBAL _intrinsic_reti
516   0000              	GLOBAL _intrinsic_halt
517   0000              	GLOBAL _intrinsic_ei
518   0000              	GLOBAL _intrinsic_di
519   0000              	GLOBAL _intrinsic_stub
520   0000              	GLOBAL _ulltoa_callee
521   0000              	GLOBAL _ulltoa
522   0000              	GLOBAL _strtoull_callee
523   0000              	GLOBAL _strtoull
524   0000              	GLOBAL _strtoll_callee
525   0000              	GLOBAL _strtoll
526   0000              	GLOBAL _lltoa_callee
527   0000              	GLOBAL _lltoa
528   0000              	GLOBAL _llabs_callee
529   0000              	GLOBAL _llabs
530   0000              	GLOBAL __lldivu__callee
531   0000              	GLOBAL __lldivu_
532   0000              	GLOBAL __lldiv__callee
533   0000              	GLOBAL __lldiv_
534   0000              	GLOBAL _atoll_callee
535   0000              	GLOBAL _atoll
536   0000              	GLOBAL _realloc_unlocked_callee
537   0000              	GLOBAL _realloc_unlocked
538   0000              	GLOBAL _malloc_unlocked_fastcall
539   0000              	GLOBAL _malloc_unlocked
540   0000              	GLOBAL _free_unlocked_fastcall
541   0000              	GLOBAL _free_unlocked
542   0000              	GLOBAL _calloc_unlocked_callee
543   0000              	GLOBAL _calloc_unlocked
544   0000              	GLOBAL _aligned_alloc_unlocked_callee
545   0000              	GLOBAL _aligned_alloc_unlocked
546   0000              	GLOBAL _realloc_callee
547   0000              	GLOBAL _realloc
548   0000              	GLOBAL _malloc_fastcall
549   0000              	GLOBAL _malloc
550   0000              	GLOBAL _free_fastcall
551   0000              	GLOBAL _free
552   0000              	GLOBAL _calloc_callee
553   0000              	GLOBAL _calloc
554   0000              	GLOBAL _aligned_alloc_callee
555   0000              	GLOBAL _aligned_alloc
556   0000              	GLOBAL _utoa_callee
557   0000              	GLOBAL _utoa
558   0000              	GLOBAL _ultoa_callee
559   0000              	GLOBAL _ultoa
560   0000              	GLOBAL _system_fastcall
561   0000              	GLOBAL _system
562   0000              	GLOBAL _strtoul_callee
563   0000              	GLOBAL _strtoul
564   0000              	GLOBAL _strtol_callee
565   0000              	GLOBAL _strtol
566   0000              	GLOBAL _strtof_callee
567   0000              	GLOBAL _strtof
568   0000              	GLOBAL _strtod_callee
569   0000              	GLOBAL _strtod
570   0000              	GLOBAL _srand_fastcall
571   0000              	GLOBAL _srand
572   0000              	GLOBAL _rand
573   0000              	GLOBAL _quick_exit_fastcall
574   0000              	GLOBAL _quick_exit
575   0000              	GLOBAL _qsort_callee
576   0000              	GLOBAL _qsort
577   0000              	GLOBAL _ltoa_callee
578   0000              	GLOBAL _ltoa
579   0000              	GLOBAL _labs_fastcall
580   0000              	GLOBAL _labs
581   0000              	GLOBAL _itoa_callee
582   0000              	GLOBAL _itoa
583   0000              	GLOBAL _ftoh_callee
584   0000              	GLOBAL _ftoh
585   0000              	GLOBAL _ftog_callee
586   0000              	GLOBAL _ftog
587   0000              	GLOBAL _ftoe_callee
588   0000              	GLOBAL _ftoe
589   0000              	GLOBAL _ftoa_callee
590   0000              	GLOBAL _ftoa
591   0000              	GLOBAL _exit_fastcall
592   0000              	GLOBAL _exit
593   0000              	GLOBAL _dtoh_callee
594   0000              	GLOBAL _dtoh
595   0000              	GLOBAL _dtog_callee
596   0000              	GLOBAL _dtog
597   0000              	GLOBAL _dtoe_callee
598   0000              	GLOBAL _dtoe
599   0000              	GLOBAL _dtoa_callee
600   0000              	GLOBAL _dtoa
601   0000              	GLOBAL _bsearch_callee
602   0000              	GLOBAL _bsearch
603   0000              	GLOBAL _atol_fastcall
604   0000              	GLOBAL _atol
605   0000              	GLOBAL _atoi_fastcall
606   0000              	GLOBAL _atoi
607   0000              	GLOBAL _atof_fastcall
608   0000              	GLOBAL _atof
609   0000              	GLOBAL _atexit_fastcall
610   0000              	GLOBAL _atexit
611   0000              	GLOBAL _at_quick_exit_fastcall
612   0000              	GLOBAL _at_quick_exit
613   0000              	GLOBAL _abs_fastcall
614   0000              	GLOBAL _abs
615   0000              	GLOBAL _abort
616   0000              	GLOBAL __strtou__callee
617   0000              	GLOBAL __strtou_
618   0000              	GLOBAL __strtoi__callee
619   0000              	GLOBAL __strtoi_
620   0000              	GLOBAL __random_uniform_xor_8__fastcall
621   0000              	GLOBAL __random_uniform_xor_8_
622   0000              	GLOBAL __random_uniform_xor_32__fastcall
623   0000              	GLOBAL __random_uniform_xor_32_
624   0000              	GLOBAL __random_uniform_cmwc_8__fastcall
625   0000              	GLOBAL __random_uniform_cmwc_8_
626   0000              	GLOBAL __shellsort__callee
627   0000              	GLOBAL __shellsort_
628   0000              	GLOBAL __quicksort__callee
629   0000              	GLOBAL __quicksort_
630   0000              	GLOBAL __insertion_sort__callee
631   0000              	GLOBAL __insertion_sort_
632   0000              	GLOBAL __ldivu__callee
633   0000              	GLOBAL __ldivu_
634   0000              	GLOBAL __ldiv__callee
635   0000              	GLOBAL __ldiv_
636   0000              	GLOBAL __divu__callee
637   0000              	GLOBAL __divu_
638   0000              	GLOBAL __div__callee
639   0000              	GLOBAL __div_
640   0000              	GLOBAL _joynames
641   0000              	GLOBAL _initials
642   0000              	GLOBAL _hof
643   0000              	GLOBAL _score_osd_tile
644   0000              	GLOBAL _score_osd_update_time
645   0000              	GLOBAL _score_osd_col
646   0000              	GLOBAL _score_osd_lin
647   0000              	GLOBAL _phase_bonus_total
648   0000              	GLOBAL _phase_angry
649   0000              	GLOBAL _phase_curr
650   0000              	GLOBAL _phase_end
651   0000              	GLOBAL _phase_coins
652   0000              	GLOBAL _phase_pop
653   0000              	GLOBAL _phase_tot
654   0000              	GLOBAL _phase_left
655   0000              	GLOBAL _phase_quota
656   0000              	GLOBAL _phases
657   0000              	GLOBAL _lvl_1
658   0000              	GLOBAL _sprite_speed_alt
659   0000              	GLOBAL _sprite_speed
660   0000              	GLOBAL _screen_ink
661   0000              	GLOBAL _screen_paper
662   0000              	GLOBAL _game_menu_sel
663   0000              	GLOBAL _game_type
664   0000              	GLOBAL _game_osd
665   0000              	GLOBAL _game_bonus
666   0000              	GLOBAL _spr_water_time
667   0000              	GLOBAL _spr_water_clear
668   0000              	GLOBAL _game_time_fireball_start
669   0000              	GLOBAL _game_time_flipped
670   0000              	GLOBAL _game_score_top
671   0000              	GLOBAL _game_lives
672   0000              	GLOBAL _game_over
673   0000              	GLOBAL _game_sound
674   0000              	GLOBAL _game_inmune
675   0000              	GLOBAL _game_god_mode
676   0000              	GLOBAL _game_start_phase
677   0000              	GLOBAL _game_two_player
678   0000              	GLOBAL _game_brick_tile
679   0000              	GLOBAL _game_pow
680   0000              	GLOBAL _game_ugly_fix_cnt
681   0000              	GLOBAL _game_ugly_back
682   0000              	GLOBAL _spr_count
683   0000              	GLOBAL _osd_show_time
684   0000              	GLOBAL _osd_update_time
685   0000              	GLOBAL _frame_time
686   0000              	GLOBAL _entry_time
687   0000              	GLOBAL _curr_time
688   0000              	GLOBAL _s_state
689   0000              	GLOBAL _attrib_hl
690   0000              	GLOBAL _attrib
691   0000              	GLOBAL _zx_val_asm
692   0000              	GLOBAL _enemies
693   0000              	GLOBAL _tmp_ui
694   0000              	GLOBAL _tmp_sc
695   0000              	GLOBAL _tmp_uc
696   0000              	GLOBAL _tmp1
697   0000              	GLOBAL _tmp0
698   0000              	GLOBAL _tmp
699   0000              	GLOBAL _index1
700   0000              	GLOBAL _loop_count
701   0000              	GLOBAL _sprite_lin_inc_mul
702   0000              	GLOBAL _s_col1
703   0000              	GLOBAL _s_col0
704   0000              	GLOBAL _s_lin1
705   0000              	GLOBAL _s_lin0
706   0000              	GLOBAL _s_tile1
707   0000              	GLOBAL _s_tile0
708   0000              	GLOBAL _hit_count
709   0000              	GLOBAL _tile_offset_other_player
710   0000              	GLOBAL _tile_offset
711   0000              	GLOBAL _index_player
712   0000              	GLOBAL _sprite_other_player
713   0000              	GLOBAL _sprite
714   0000              	GLOBAL _player_joy
715   0000              	GLOBAL _player_next_extra
716   0000              	GLOBAL _player_score
717   0000              	GLOBAL _last_time
718   0000              	GLOBAL _sliding
719   0000              	GLOBAL _spr_timer
720   0000              	GLOBAL _jump_lin
721   0000              	GLOBAL _player_jump_c
722   0000              	GLOBAL _hit_col
723   0000              	GLOBAL _hit_lin
724   0000              	GLOBAL _colint
725   0000              	GLOBAL _col
726   0000              	GLOBAL _lin
727   0000              	GLOBAL _tile
728   0000              	GLOBAL _state_a
729   0000              	GLOBAL _state
730   0000              	GLOBAL _class
731   0000              	GLOBAL _tbuffer
732   0000              	GLOBAL _dirs
733   0000              	GLOBAL _k2
734   0000              	GLOBAL _k1
735   0000              	GLOBAL _joyfunc2
736   0000              	GLOBAL _joyfunc1
737   0000              	GLOBAL _btiles
738   0000              	GLOBAL _spec128
739   0000              	GLOBAL _GLOBAL_ZX_PORT_7FFD
740   0000              	GLOBAL _GLOBAL_ZX_PORT_1FFD
741   0000              	GLOBAL _GLOBAL_ZX_PORT_FE
742   0000              	GLOBAL _ay_effect_20
743   0000              	GLOBAL _ay_effect_19
744   0000              	GLOBAL _ay_effect_18
745   0000              	GLOBAL _ay_effect_17
746   0000              	GLOBAL _ay_effect_16
747   0000              	GLOBAL _ay_effect_15
748   0000              	GLOBAL _ay_effect_14
749   0000              	GLOBAL _ay_effect_13
750   0000              	GLOBAL _ay_effect_12
751   0000              	GLOBAL _ay_effect_11
752   0000              	GLOBAL _ay_effect_10
753   0000              	GLOBAL _ay_effect_09
754   0000              	GLOBAL _ay_effect_08
755   0000              	GLOBAL _ay_effect_07
756   0000              	GLOBAL _ay_effect_06
757   0000              	GLOBAL _ay_effect_05
758   0000              	GLOBAL _ay_effect_04
759   0000              	GLOBAL _ay_effect_03
760   0000              	GLOBAL _ay_effect_02
761   0000              	GLOBAL _ay_effect_01
762   0000              	GLOBAL _pb_midi_phase_1
763   0000              	GLOBAL _pb_midi_title
764   0000              	GLOBAL _NIRVANAP_CHAR_TABLE
765   0000              	GLOBAL _NIRVANAP_WIDE_IMAGES
766   0000              	GLOBAL _NIRVANAP_TILE_IMAGES
767   0000              	GLOBAL _NIRVANAP_HOLE
768   0000              	GLOBAL _NIRVANAP_ISR_HOOK
769   0000              	GLOBAL _fix_1
770   0000              	GLOBAL _control_method
771   0000              	GLOBAL _hall_valids
772   0000              ;--------------------------------------------------------
773   0000              ; special function registers
774   0000              ;--------------------------------------------------------
775   0000              defc _IO_FE	=	0x00fe
776   0000              defc _IO_1FFD	=	0x1ffd
777   0000              defc _IO_7FFD	=	0x7ffd
778   0000              ;--------------------------------------------------------
779   0000              ; ram data
780   0000              ;--------------------------------------------------------
781   0000              	SECTION bss_compiler
782   0000              ;--------------------------------------------------------
783   0000              ; ram data
784   0000              ;--------------------------------------------------------
785   0000              
786   0000              IF 0
787   0000              
788   0000              ; .area _INITIALIZED removed by z88dk
789   0000              
790   0000              
791   0000              ENDIF
792   0000              
793   0000              ;--------------------------------------------------------
794   0000              ; absolute external ram data
795   0000              ;--------------------------------------------------------
796   0000              	SECTION IGNORE
797   0000              ;--------------------------------------------------------
798   0000              ; global & static initialisations
799   0000              ;--------------------------------------------------------
800   0000              	SECTION code_crt_init
801   0000              ;--------------------------------------------------------
802   0000              ; Home
803   0000              ;--------------------------------------------------------
804   0000              	SECTION IGNORE
805   0000              ;--------------------------------------------------------
806   0000              ; code
807   0000              ;--------------------------------------------------------
808   0000              	SECTION code_compiler
809   0000              ;	---------------------------------
810   0000              ; Function enemy_coin1
811   0000              ; ---------------------------------
812   0000              _enemy_coin1:
813   0000  3A 00 00    	ld	a,(_phase_left)
814   0003  B7          	or	a, a
815   0004  28 29       	jr	Z,l_enemy_coin1_00107
816   0006  CD B6 0C    	call	_enemy_walk
817   0009  2A 00 00    	ld	hl,(_sprite)
818   000C  26 00       	ld	h,0x00
819   000E  01 00 00    	ld	bc,_lin
820   0011  09          	add	hl,bc
821   0012  7E          	ld	a,(hl)
822   0013  D6 98       	sub	a,0x98
823   0015  20 18       	jr	NZ,l_enemy_coin1_00107
824   0017  2A 00 00    	ld	hl,(_sprite)
825   001A  26 00       	ld	h,0x00
826   001C  01 00 00    	ld	bc,_col
827   001F  09          	add	hl,bc
828   0020  7E          	ld	a,(hl)
829   0021  FE 03       	cp	a,0x03
830   0023  28 04       	jr	Z,l_enemy_coin1_00101
831   0025  D6 1B       	sub	a,0x1b
832   0027  20 06       	jr	NZ,l_enemy_coin1_00107
833   0029              l_enemy_coin1_00101:
834   0029  2A 00 00    	ld	hl,(_sprite)
835   002C  CD 00 00    	call	_spr_destroy
836   002F              l_enemy_coin1_00107:
837   002F  C9          	ret
838   0030              	SECTION code_compiler
839   0030              ;	---------------------------------
840   0030              ; Function enemy_coin2
841   0030              ; ---------------------------------
842   0030              _enemy_coin2:
843   0030  01 00 00    	ld	bc,_colint+0
844   0033  79          	ld	a, c
845   0034  21 00 00    	ld	hl,_sprite
846   0037  86          	add	a, (hl)
847   0038  5F          	ld	e, a
848   0039  78          	ld	a, b
849   003A  CE 00       	adc	a,0x00
850   003C  57          	ld	d, a
851   003D  1A          	ld	a, (de)
852   003E  3C          	inc	a
853   003F  12          	ld	(de), a
854   0040  79          	ld	a, c
855   0041  86          	add	a, (hl)
856   0042  4F          	ld	c, a
857   0043  78          	ld	a, b
858   0044  CE 00       	adc	a,0x00
859   0046  47          	ld	b, a
860   0047  0A          	ld	a, (bc)
861   0048  D6 03       	sub	a,0x03
862   004A  C0          	ret	NZ
863   004B  AF          	xor	a, a
864   004C  02          	ld	(bc), a
865   004D  C9          	ret
866   004E              	SECTION code_compiler
867   004E              ;	---------------------------------
868   004E              ; Function enemy_collision
869   004E              ; ---------------------------------
870   004E              _enemy_collision:
871   004E  CD 00 00    	call	___sdcc_enter_ix
872   0051  3B          	dec	sp
873   0052  01 00 00    	ld	bc,_state+0
874   0055  2A 00 00    	ld	hl,(_sprite)
875   0058  26 00       	ld	h,0x00
876   005A  09          	add	hl,bc
877   005B  7E          	ld	a,(hl)
878   005C  CB 67       	bit	4,a
879   005E  28 05       	jr	Z,l_enemy_collision_00102
880   0060  2E 00       	ld	l,0x00
881   0062  C3 6A 01    	jp	l_enemy_collision_00130
882   0065              l_enemy_collision_00102:
883   0065  CB 6F       	bit	5, a
884   0067  28 05       	jr	Z,l_enemy_collision_00104
885   0069  2E 00       	ld	l,0x00
886   006B  C3 6A 01    	jp	l_enemy_collision_00130
887   006E              l_enemy_collision_00104:
888   006E  CB 4F       	bit	1, a
889   0070  28 05       	jr	Z,l_enemy_collision_00106
890   0072  2E 00       	ld	l,0x00
891   0074  C3 6A 01    	jp	l_enemy_collision_00130
892   0077              l_enemy_collision_00106:
893   0077  0F          	rrca
894   0078  30 05       	jr	NC,l_enemy_collision_00108
895   007A  2E 00       	ld	l,0x00
896   007C  C3 6A 01    	jp	l_enemy_collision_00130
897   007F              l_enemy_collision_00108:
898   007F  2A 00 00    	ld	hl,(_sprite)
899   0082  26 00       	ld	h,0x00
900   0084  11 00 00    	ld	de,_state_a
901   0087  19          	add	hl,de
902   0088  CB 4E       	bit	1,(hl)
903   008A  28 05       	jr	Z,l_enemy_collision_00110
904   008C  2E 00       	ld	l,0x00
905   008E  C3 6A 01    	jp	l_enemy_collision_00130
906   0091              l_enemy_collision_00110:
907   0091  21 00 00    	ld	hl,_enemies
908   0094  36 00       	ld	(hl),0x00
909   0096              l_enemy_collision_00129:
910   0096  2A 00 00    	ld	hl,(_enemies)
911   0099  26 00       	ld	h,0x00
912   009B  11 00 00    	ld	de,_class
913   009E  19          	add	hl,de
914   009F  7E          	ld	a,(hl)
915   00A0  6F          	ld	l,a
916   00A1  EB          	ex	de,hl
917   00A2  B7          	or	a,a
918   00A3  CA 50 01    	jp	Z,l_enemy_collision_00127
919   00A6  3E 09       	ld	a,0x09
920   00A8  93          	sub	a,e
921   00A9  DA 50 01    	jp	C,l_enemy_collision_00127
922   00AC  3A 00 00    	ld	a,(_enemies)
923   00AF  21 00 00    	ld	hl,_sprite
924   00B2  96          	sub	a, (hl)
925   00B3  CA 50 01    	jp	Z,l_enemy_collision_00127
926   00B6  2A 00 00    	ld	hl,(_enemies)
927   00B9  26 00       	ld	h,0x00
928   00BB  09          	add	hl,bc
929   00BC  7E          	ld	a,(hl)
930   00BD  CB 6F       	bit	5,a
931   00BF  C2 50 01    	jp	NZ,l_enemy_collision_00127
932   00C2  CB 4F       	bit	1, a
933   00C4  C2 50 01    	jp	NZ,l_enemy_collision_00127
934   00C7  C5          	push	bc
935   00C8  AF          	xor	a, a
936   00C9  F5          	push	af
937   00CA  33          	inc	sp
938   00CB  2A FF FF    	ld	hl,(_enemies - 1)
939   00CE  3A 00 00    	ld	a,(_sprite)
940   00D1  6F          	ld	l,a
941   00D2  E5          	push	hl
942   00D3  CD 00 00    	call	_spr_collision_check
943   00D6  F1          	pop	af
944   00D7  33          	inc	sp
945   00D8  C1          	pop	bc
946   00D9  7D          	ld	a,l
947   00DA  B7          	or	a, a
948   00DB  28 73       	jr	Z,l_enemy_collision_00127
949   00DD  2A 00 00    	ld	hl,(_enemies)
950   00E0  26 00       	ld	h,0x00
951   00E2  09          	add	hl,bc
952   00E3  7E          	ld	a,(hl)
953   00E4  6F          	ld	l,a
954   00E5  CB 67       	bit	4,a
955   00E7  EB          	ex	de,hl
956   00E8  20 35       	jr	NZ,l_enemy_collision_00121
957   00EA  21 00 00    	ld	hl,_s_state
958   00ED  7E          	ld	a, (hl)
959   00EE  E6 08       	and	a,0x08
960   00F0  57          	ld	d, a
961   00F1  7B          	ld	a, e
962   00F2  E6 08       	and	a,0x08
963   00F4  DD 77 FF    	ld	(ix-1),a
964   00F7  7A          	ld	a, d
965   00F8  DD 96 FF    	sub	a,(ix-1)
966   00FB  28 22       	jr	Z,l_enemy_collision_00121
967   00FD  7E          	ld	a, (hl)
968   00FE  E6 04       	and	a,0x04
969   0100  57          	ld	d, a
970   0101  7B          	ld	a, e
971   0102  E6 04       	and	a,0x04
972   0104  5F          	ld	e, a
973   0105  7A          	ld	a, d
974   0106  93          	sub	a, e
975   0107  28 16       	jr	Z,l_enemy_collision_00121
976   0109  2A 00 00    	ld	hl,(_sprite)
977   010C  26 00       	ld	h,0x00
978   010E  11 00 00    	ld	de,_class
979   0111  19          	add	hl,de
980   0112  7E          	ld	a,(hl)
981   0113  D6 08       	sub	a,0x08
982   0115  28 08       	jr	Z,l_enemy_collision_00121
983   0117  2A 00 00    	ld	hl,(_enemies)
984   011A  C5          	push	bc
985   011B  CD 6E 01    	call	_enemy_collision_turn_dir
986   011E  C1          	pop	bc
987   011F              l_enemy_collision_00121:
988   011F  2A 00 00    	ld	hl,(_sprite)
989   0122  26 00       	ld	h,0x00
990   0124  09          	add	hl,bc
991   0125  3A 00 00    	ld	a,(_s_state)
992   0128  77          	ld	(hl),a
993   0129  2A 00 00    	ld	hl,(_sprite)
994   012C  C5          	push	bc
995   012D  CD 6E 01    	call	_enemy_collision_turn_dir
996   0130  C1          	pop	bc
997   0131  2A 00 00    	ld	hl,(_sprite)
998   0134  26 00       	ld	h,0x00
999   0136  09          	add	hl,bc
1000  0137  7E          	ld	a,(hl)
1001  0138  32 00 00    	ld	(_s_state),a
1002  013B  01 00 00    	ld	bc,_spr_timer+0
1003  013E  2A 00 00    	ld	hl,(_sprite)
1004  0141  26 00       	ld	h,0x00
1005  0143  29          	add	hl, hl
1006  0144  09          	add	hl,bc
1007  0145  ED 5B 00 00 	ld	de,(_curr_time)
1008  0149  73          	ld	(hl),e
1009  014A  23          	inc	hl
1010  014B  72          	ld	(hl),d
1011  014C  2E 01       	ld	l,0x01
1012  014E  18 1A       	jr	l_enemy_collision_00130
1013  0150              l_enemy_collision_00127:
1014  0150  21 00 00    	ld	hl,_enemies
1015  0153  7E          	ld	a,(hl)
1016  0154  3C          	inc	a
1017  0155  77          	ld	(hl),a
1018  0156  D6 06       	sub	a,0x06
1019  0158  DA 96 00    	jp	C, l_enemy_collision_00129
1020  015B  2A 00 00    	ld	hl,(_sprite)
1021  015E  26 00       	ld	h,0x00
1022  0160  01 00 00    	ld	bc,_state_a
1023  0163  09          	add	hl,bc
1024  0164  7E          	ld	a,(hl)
1025  0165  E6 FB       	and	a,0xfb
1026  0167  77          	ld	(hl),a
1027  0168  2E 00       	ld	l,0x00
1028  016A              l_enemy_collision_00130:
1029  016A  33          	inc	sp
1030  016B  DD E1       	pop	ix
1031  016D  C9          	ret
1032  016E              	SECTION code_compiler
1033  016E              ;	---------------------------------
1034  016E              ; Function enemy_collision_turn_dir
1035  016E              ; ---------------------------------
1036  016E              _enemy_collision_turn_dir:
1037  016E  CD 00 00    	call	___sdcc_enter_ix
1038  0171  F5          	push	af
1039  0172  3E 00       	ld	a,+((_state_a) & 0xFF)
1040  0174  85          	add	a,l
1041  0175  4D          	ld	c,l
1042  0176  5F          	ld	e, a
1043  0177  3E 00       	ld	a, +((_state_a) / 256)
1044  0179  CE 00       	adc	a,0x00
1045  017B  57          	ld	d, a
1046  017C  1A          	ld	a, (de)
1047  017D  CB 57       	bit	2, a
1048  017F  20 4C       	jr	NZ,l_enemy_collision_turn_dir_00105
1049  0181  06 00       	ld	b,0x00
1050  0183  21 00 00    	ld	hl,_state
1051  0186  09          	add	hl, bc
1052  0187  7E          	ld	a, (hl)
1053  0188  EE 0C       	xor	a,+(0x04^0x08)
1054  018A  77          	ld	(hl),a
1055  018B  1A          	ld	a, (de)
1056  018C  F6 04       	or	a,0x04
1057  018E  12          	ld	(de), a
1058  018F  06 00       	ld	b,0x00
1059  0191  21 00 00    	ld	hl,_class
1060  0194  09          	add	hl, bc
1061  0195  46          	ld	b, (hl)
1062  0196  3E 06       	ld	a,0x06
1063  0198  90          	sub	a, b
1064  0199  38 32       	jr	C,l_enemy_collision_turn_dir_00105
1065  019B  1A          	ld	a, (de)
1066  019C  F6 02       	or	a,0x02
1067  019E  12          	ld	(de), a
1068  019F  11 00 00    	ld	de,_spr_timer+0
1069  01A2  69          	ld	l, c
1070  01A3  26 00       	ld	h,0x00
1071  01A5  29          	add	hl, hl
1072  01A6  19          	add	hl,de
1073  01A7  E3          	ex	(sp), hl
1074  01A8  E1          	pop	hl
1075  01A9  ED 5B 00 00 	ld	de,(_curr_time)
1076  01AD  E5          	push	hl
1077  01AE  73          	ld	(hl), e
1078  01AF  23          	inc	hl
1079  01B0  72          	ld	(hl), d
1080  01B1  3E 00       	ld	a, +((_tile) & 0xFF)
1081  01B3  81          	add	a, c
1082  01B4  5F          	ld	e, a
1083  01B5  3E 00       	ld	a, +((_tile) / 256)
1084  01B7  CE 00       	adc	a,0x00
1085  01B9  57          	ld	d, a
1086  01BA  C5          	push	bc
1087  01BB  D5          	push	de
1088  01BC  69          	ld	l, c
1089  01BD  CD 00 00    	call	_spr_tile
1090  01C0  D1          	pop	de
1091  01C1  C1          	pop	bc
1092  01C2  7D          	ld	a,l
1093  01C3  12          	ld	(de), a
1094  01C4  11 00 00    	ld	de,_colint+0
1095  01C7  69          	ld	l,c
1096  01C8  26 00       	ld	h,0x00
1097  01CA  19          	add	hl, de
1098  01CB  36 00       	ld	(hl),0x00
1099  01CD              l_enemy_collision_turn_dir_00105:
1100  01CD  F1          	pop	af
1101  01CE  DD E1       	pop	ix
1102  01D0  C9          	ret
1103  01D1              	SECTION code_compiler
1104  01D1              ;	---------------------------------
1105  01D1              ; Function enemy_hit
1106  01D1              ; ---------------------------------
1107  01D1              _enemy_hit:
1108  01D1  76          	halt
1109  01D2  2A 00 00    	ld	hl,(_enemies)
1110  01D5  26 00       	ld	h,0x00
1111  01D7  5D          	ld	e,l
1112  01D8  01 00 00    	ld	bc,_col
1113  01DB  09          	add	hl,bc
1114  01DC  46          	ld	b,(hl)
1115  01DD  16 00       	ld	d,0x00
1116  01DF  21 00 00    	ld	hl,_lin
1117  01E2  19          	add	hl,de
1118  01E3  4E          	ld	c, (hl)
1119  01E4  C5          	push	bc
1120  01E5  AF          	xor	a, a
1121  01E6  F5          	push	af
1122  01E7  33          	inc	sp
1123  01E8  CD 00 00    	call	_NIRVANAP_fillT_callee
1124  01EB  2A 00 00    	ld	hl,(_enemies)
1125  01EE  26 00       	ld	h,0x00
1126  01F0  01 00 00    	ld	bc,_lin
1127  01F3  09          	add	hl,bc
1128  01F4  7E          	ld	a,(hl)
1129  01F5  C6 FC       	add	a,0xfc
1130  01F7  77          	ld	(hl),a
1131  01F8  2A 00 00    	ld	hl,(_enemies)
1132  01FB  26 00       	ld	h,0x00
1133  01FD  01 00 00    	ld	bc,_col
1134  0200  09          	add	hl,bc
1135  0201  4E          	ld	c, (hl)
1136  0202  2A 00 00    	ld	hl,(_enemies)
1137  0205  26 00       	ld	h,0x00
1138  0207  11 00 00    	ld	de,_lin
1139  020A  19          	add	hl,de
1140  020B  46          	ld	b, (hl)
1141  020C  2A 00 00    	ld	hl,(_enemies)
1142  020F  26 00       	ld	h,0x00
1143  0211  11 00 00    	ld	de,_tile
1144  0214  19          	add	hl,de
1145  0215  56          	ld	d, (hl)
1146  0216  79          	ld	a,c
1147  0217  21 00 00    	ld	hl,_enemies
1148  021A  F5          	push	af
1149  021B  33          	inc	sp
1150  021C  4A          	ld	c, d
1151  021D  7E          	ld	a,(hl)
1152  021E  C5          	push	bc
1153  021F  F5          	push	af
1154  0220  33          	inc	sp
1155  0221  CD 00 00    	call	_NIRVANAP_spriteT_callee
1156  0224  2A 00 00    	ld	hl,(_enemies)
1157  0227  26 00       	ld	h,0x00
1158  0229  01 00 00    	ld	bc,_state_a
1159  022C  09          	add	hl,bc
1160  022D  7E          	ld	a,(hl)
1161  022E  E6 FD       	and	a,0xfd
1162  0230  77          	ld	(hl),a
1163  0231  01 00 00    	ld	bc,_spr_timer+0
1164  0234  2A 00 00    	ld	hl,(_enemies)
1165  0237  26 00       	ld	h,0x00
1166  0239  29          	add	hl, hl
1167  023A  09          	add	hl,bc
1168  023B  ED 5B 00 00 	ld	de,(_curr_time)
1169  023F  73          	ld	(hl),e
1170  0240  23          	inc	hl
1171  0241  72          	ld	(hl),d
1172  0242  2A 00 00    	ld	hl,(_enemies)
1173  0245  26 00       	ld	h,0x00
1174  0247  01 00 00    	ld	bc,_class
1175  024A  09          	add	hl,bc
1176  024B  4E          	ld	c,(hl)
1177  024C  3E 0B       	ld	a,0x0b
1178  024E  91          	sub	a, c
1179  024F  DA E4 02    	jp	C, l_enemy_hit_00113
1180  0252  06 00       	ld	b,0x00
1181  0254  21 5B 02    	ld	hl,l_enemy_hit_00119
1182  0257  09          	add	hl, bc
1183  0258  09          	add	hl, bc
1184  0259  09          	add	hl, bc
1185  025A  E9          	jp	(hl)
1186  025B              l_enemy_hit_00119:
1187  025B  C3 E4 02    	jp	l_enemy_hit_00113
1188  025E  C3 7F 02    	jp	l_enemy_hit_00101
1189  0261  C3 86 02    	jp	l_enemy_hit_00102
1190  0264  C3 8D 02    	jp	l_enemy_hit_00103
1191  0267  C3 94 02    	jp	l_enemy_hit_00104
1192  026A  C3 9B 02    	jp	l_enemy_hit_00105
1193  026D  C3 A2 02    	jp	l_enemy_hit_00106
1194  0270  C3 B0 02    	jp	l_enemy_hit_00108
1195  0273  C3 BC 02    	jp	l_enemy_hit_00109
1196  0276  C3 A9 02    	jp	l_enemy_hit_00107
1197  0279  C3 CE 02    	jp	l_enemy_hit_00110
1198  027C  C3 DA 02    	jp	l_enemy_hit_00111
1199  027F              l_enemy_hit_00101:
1200  027F  2E 30       	ld	l,0x30
1201  0281  CD C4 03    	call	_enemy_flip
1202  0284  18 5E       	jr	l_enemy_hit_00113
1203  0286              l_enemy_hit_00102:
1204  0286  2E 3C       	ld	l,0x3c
1205  0288  CD C4 03    	call	_enemy_flip
1206  028B  18 57       	jr	l_enemy_hit_00113
1207  028D              l_enemy_hit_00103:
1208  028D  2E 48       	ld	l,0x48
1209  028F  CD C4 03    	call	_enemy_flip
1210  0292  18 50       	jr	l_enemy_hit_00113
1211  0294              l_enemy_hit_00104:
1212  0294  2E 54       	ld	l,0x54
1213  0296  CD A1 04    	call	_enemy_flip_sidestepper
1214  0299  18 49       	jr	l_enemy_hit_00113
1215  029B              l_enemy_hit_00105:
1216  029B  2E 60       	ld	l,0x60
1217  029D  CD A1 04    	call	_enemy_flip_sidestepper
1218  02A0  18 42       	jr	l_enemy_hit_00113
1219  02A2              l_enemy_hit_00106:
1220  02A2  2E 6C       	ld	l,0x6c
1221  02A4  CD A1 04    	call	_enemy_flip_sidestepper
1222  02A7  18 3B       	jr	l_enemy_hit_00113
1223  02A9              l_enemy_hit_00107:
1224  02A9  2E 78       	ld	l,0x78
1225  02AB  CD C4 03    	call	_enemy_flip
1226  02AE  18 34       	jr	l_enemy_hit_00113
1227  02B0              l_enemy_hit_00108:
1228  02B0  2A 00 00    	ld	hl,(_enemies)
1229  02B3  26 32       	ld	h,0x32
1230  02B5  E5          	push	hl
1231  02B6  CD 00 00    	call	_player_coin
1232  02B9  F1          	pop	af
1233  02BA  18 28       	jr	l_enemy_hit_00113
1234  02BC              l_enemy_hit_00109:
1235  02BC  21 00 00    	ld	hl,_ay_effect_10
1236  02BF  CD 00 00    	call	_ay_fx_play
1237  02C2  2A 00 00    	ld	hl,(_enemies)
1238  02C5  26 50       	ld	h,0x50
1239  02C7  E5          	push	hl
1240  02C8  CD 00 00    	call	_player_coin
1241  02CB  F1          	pop	af
1242  02CC  18 16       	jr	l_enemy_hit_00113
1243  02CE              l_enemy_hit_00110:
1244  02CE  2A 00 00    	ld	hl,(_enemies)
1245  02D1  26 64       	ld	h,0x64
1246  02D3  E5          	push	hl
1247  02D4  CD 00 00    	call	_player_coin
1248  02D7  F1          	pop	af
1249  02D8  18 0A       	jr	l_enemy_hit_00113
1250  02DA              l_enemy_hit_00111:
1251  02DA  2A 00 00    	ld	hl,(_enemies)
1252  02DD  26 14       	ld	h,0x14
1253  02DF  E5          	push	hl
1254  02E0  CD 00 00    	call	_player_coin
1255  02E3  F1          	pop	af
1256  02E4              l_enemy_hit_00113:
1257  02E4  C9          	ret
1258  02E5              	SECTION code_compiler
1259  02E5              ;	---------------------------------
1260  02E5              ; Function enemy_flip_change_dir
1261  02E5              ; ---------------------------------
1262  02E5              _enemy_flip_change_dir:
1263  02E5  CD 00 00    	call	___sdcc_enter_ix
1264  02E8  F5          	push	af
1265  02E9  DD 75 FE    	ld	(ix-2),l
1266  02EC  2A 00 00    	ld	hl,(_enemies)
1267  02EF  26 00       	ld	h,0x00
1268  02F1  01 00 00    	ld	bc,_state
1269  02F4  09          	add	hl,bc
1270  02F5  CB 56       	bit	2,(hl)
1271  02F7  28 1E       	jr	Z,l_enemy_flip_change_dir_00102
1272  02F9  01 00 00    	ld	bc,_state_a+0
1273  02FC  79          	ld	a, c
1274  02FD  21 00 00    	ld	hl,_enemies
1275  0300  86          	add	a, (hl)
1276  0301  5F          	ld	e, a
1277  0302  78          	ld	a, b
1278  0303  CE 00       	adc	a,0x00
1279  0305  57          	ld	d, a
1280  0306  1A          	ld	a, (de)
1281  0307  F6 10       	or	a,0x10
1282  0309  12          	ld	(de), a
1283  030A  79          	ld	a, c
1284  030B  86          	add	a, (hl)
1285  030C  4F          	ld	c, a
1286  030D  78          	ld	a, b
1287  030E  CE 00       	adc	a,0x00
1288  0310  47          	ld	b, a
1289  0311  0A          	ld	a, (bc)
1290  0312  E6 F7       	and	a,0xf7
1291  0314  02          	ld	(bc), a
1292  0315  18 1C       	jr	l_enemy_flip_change_dir_00103
1293  0317              l_enemy_flip_change_dir_00102:
1294  0317  01 00 00    	ld	bc,_state_a+0
1295  031A  79          	ld	a, c
1296  031B  21 00 00    	ld	hl,_enemies
1297  031E  86          	add	a, (hl)
1298  031F  5F          	ld	e, a
1299  0320  78          	ld	a, b
1300  0321  CE 00       	adc	a,0x00
1301  0323  57          	ld	d, a
1302  0324  1A          	ld	a, (de)
1303  0325  F6 10       	or	a,0x10
1304  0327  12          	ld	(de), a
1305  0328  79          	ld	a, c
1306  0329  86          	add	a, (hl)
1307  032A  4F          	ld	c, a
1308  032B  78          	ld	a, b
1309  032C  CE 00       	adc	a,0x00
1310  032E  47          	ld	b, a
1311  032F  0A          	ld	a, (bc)
1312  0330  E6 F7       	and	a,0xf7
1313  0332  02          	ld	(bc), a
1314  0333              l_enemy_flip_change_dir_00103:
1315  0333  3A 00 00    	ld	a,(_sprite)
1316  0336  F5          	push	af
1317  0337  33          	inc	sp
1318  0338  CD 00 00    	call	_spr_calc_hor
1319  033B  33          	inc	sp
1320  033C  5D          	ld	e, l
1321  033D  3A 00 00    	ld	a,(_enemies)
1322  0340  D5          	push	de
1323  0341  F5          	push	af
1324  0342  33          	inc	sp
1325  0343  CD 00 00    	call	_spr_calc_hor
1326  0346  33          	inc	sp
1327  0347  D1          	pop	de
1328  0348  55          	ld	d, l
1329  0349  2A 00 00    	ld	hl,(_enemies)
1330  034C  26 00       	ld	h,0x00
1331  034E  01 00 00    	ld	bc,_state
1332  0351  09          	add	hl,bc
1333  0352  7A          	ld	a,d
1334  0353  93          	sub	a,e
1335  0354  4D          	ld	c,l
1336  0355  44          	ld	b,h
1337  0356  30 13       	jr	NC,l_enemy_flip_change_dir_00110
1338  0358  0A          	ld	a,(bc)
1339  0359  F6 08       	or	a,0x08
1340  035B  02          	ld	(bc),a
1341  035C  2A 00 00    	ld	hl,(_enemies)
1342  035F  26 00       	ld	h,0x00
1343  0361  01 00 00    	ld	bc,_state
1344  0364  09          	add	hl,bc
1345  0365  7E          	ld	a,(hl)
1346  0366  E6 FB       	and	a,0xfb
1347  0368  77          	ld	(hl),a
1348  0369  18 4A       	jr	l_enemy_flip_change_dir_00111
1349  036B              l_enemy_flip_change_dir_00110:
1350  036B  2A 00 00    	ld	hl,(_sprite)
1351  036E  26 00       	ld	h,0x00
1352  0370  11 00 00    	ld	de,_col
1353  0373  19          	add	hl,de
1354  0374  7E          	ld	a,(hl)
1355  0375  DD 77 FF    	ld	(ix-1),a
1356  0378  2A 00 00    	ld	hl,(_enemies)
1357  037B  26 00       	ld	h,0x00
1358  037D  11 00 00    	ld	de,_col
1359  0380  19          	add	hl,de
1360  0381  5E          	ld	e, (hl)
1361  0382  21 00 00    	ld	hl,_enemies
1362  0385  DD 7E FF    	ld	a,(ix-1)
1363  0388  93          	sub	a, e
1364  0389  30 13       	jr	NC,l_enemy_flip_change_dir_00107
1365  038B  0A          	ld	a, (bc)
1366  038C  F6 04       	or	a,0x04
1367  038E  02          	ld	(bc), a
1368  038F  3E 00       	ld	a, +((_state) & 0xFF)
1369  0391  86          	add	a, (hl)
1370  0392  4F          	ld	c, a
1371  0393  3E 00       	ld	a, +((_state) / 256)
1372  0395  CE 00       	adc	a,0x00
1373  0397  47          	ld	b, a
1374  0398  0A          	ld	a, (bc)
1375  0399  E6 F7       	and	a,0xf7
1376  039B  02          	ld	(bc), a
1377  039C  18 17       	jr	l_enemy_flip_change_dir_00111
1378  039E              l_enemy_flip_change_dir_00107:
1379  039E  DD 7E FE    	ld	a,(ix-2)
1380  03A1  B7          	or	a, a
1381  03A2  20 11       	jr	NZ,l_enemy_flip_change_dir_00111
1382  03A4  0A          	ld	a, (bc)
1383  03A5  E6 F7       	and	a,0xf7
1384  03A7  02          	ld	(bc), a
1385  03A8  2A 00 00    	ld	hl,(_enemies)
1386  03AB  26 00       	ld	h,0x00
1387  03AD  01 00 00    	ld	bc,_state
1388  03B0  09          	add	hl,bc
1389  03B1  7E          	ld	a,(hl)
1390  03B2  E6 FB       	and	a,0xfb
1391  03B4  77          	ld	(hl),a
1392  03B5              l_enemy_flip_change_dir_00111:
1393  03B5  2A 00 00    	ld	hl,(_enemies)
1394  03B8  26 00       	ld	h,0x00
1395  03BA  01 00 00    	ld	bc,_colint
1396  03BD  09          	add	hl,bc
1397  03BE  AF          	xor	a,a
1398  03BF  77          	ld	(hl),a
1399  03C0  F1          	pop	af
1400  03C1  DD E1       	pop	ix
1401  03C3  C9          	ret
1402  03C4              	SECTION code_compiler
1403  03C4              ;	---------------------------------
1404  03C4              ; Function enemy_flip
1405  03C4              ; ---------------------------------
1406  03C4              _enemy_flip:
1407  03C4  CD 00 00    	call	___sdcc_enter_ix
1408  03C7  F5          	push	af
1409  03C8  DD 75 FE    	ld	(ix-2),l
1410  03CB  01 00 00    	ld	bc,_spr_timer+0
1411  03CE  2A 00 00    	ld	hl,(_enemies)
1412  03D1  26 00       	ld	h,0x00
1413  03D3  29          	add	hl, hl
1414  03D4  09          	add	hl,bc
1415  03D5  ED 5B 00 00 	ld	de,(_curr_time)
1416  03D9  73          	ld	(hl),e
1417  03DA  23          	inc	hl
1418  03DB  72          	ld	(hl),d
1419  03DC  2A 00 00    	ld	hl,(_enemies)
1420  03DF  26 00       	ld	h,0x00
1421  03E1  01 00 00    	ld	bc,_state
1422  03E4  09          	add	hl,bc
1423  03E5  7E          	ld	a,(hl)
1424  03E6  F6 01       	or	a,0x01
1425  03E8  77          	ld	(hl),a
1426  03E9  2A 00 00    	ld	hl,(_enemies)
1427  03EC  26 00       	ld	h,0x00
1428  03EE  01 00 00    	ld	bc,_state
1429  03F1  09          	add	hl,bc
1430  03F2  7E          	ld	a,(hl)
1431  03F3  E6 FD       	and	a,0xfd
1432  03F5  77          	ld	(hl),a
1433  03F6  2A 00 00    	ld	hl,(_enemies)
1434  03F9  26 00       	ld	h,0x00
1435  03FB  01 00 00    	ld	bc,_state
1436  03FE  09          	add	hl,bc
1437  03FF  7E          	ld	a,(hl)
1438  0400  EE 10       	xor	a,0x10
1439  0402  77          	ld	(hl),a
1440  0403  2A 00 00    	ld	hl,(_enemies)
1441  0406  26 00       	ld	h,0x00
1442  0408  01 00 00    	ld	bc,_jump_lin
1443  040B  09          	add	hl,bc
1444  040C  4D          	ld	c,l
1445  040D  44          	ld	b,h
1446  040E  2A 00 00    	ld	hl,(_enemies)
1447  0411  26 00       	ld	h,0x00
1448  0413  11 00 00    	ld	de,_lin
1449  0416  19          	add	hl,de
1450  0417  7E          	ld	a,(hl)
1451  0418  02          	ld	(bc),a
1452  0419  2A 00 00    	ld	hl,(_enemies)
1453  041C  26 00       	ld	h,0x00
1454  041E  01 00 00    	ld	bc,_colint
1455  0421  09          	add	hl,bc
1456  0422  AF          	xor	a,a
1457  0423  77          	ld	(hl),a
1458  0424  2A 00 00    	ld	hl,(_enemies)
1459  0427  26 00       	ld	h,0x00
1460  0429  01 00 00    	ld	bc,_state
1461  042C  09          	add	hl,bc
1462  042D  7E          	ld	a,(hl)
1463  042E  DD 77 FF    	ld	(ix-1),a
1464  0431  CB 67       	bit	4,a
1465  0433  4D          	ld	c,l
1466  0434  44          	ld	b,h
1467  0435  28 22       	jr	Z,l_enemy_flip_00105
1468  0437  21 00 00    	ld	hl,_ay_effect_02
1469  043A  CD 00 00    	call	_ay_fx_play
1470  043D  2E 00       	ld	l,0x00
1471  043F  CD E5 02    	call	_enemy_flip_change_dir
1472  0442  2A 00 00    	ld	hl,(_enemies)
1473  0445  26 00       	ld	h,0x00
1474  0447  01 00 00    	ld	bc,_tile
1475  044A  09          	add	hl,bc
1476  044B  DD 7E FE    	ld	a,(ix-2)
1477  044E  C6 06       	add	a,0x06
1478  0450  77          	ld	(hl),a
1479  0451  21 01 00    	ld	hl,0x0001
1480  0454  CD 00 00    	call	_player_score_add
1481  0457  18 44       	jr	l_enemy_flip_00107
1482  0459              l_enemy_flip_00105:
1483  0459  2A 00 00    	ld	hl,(_enemies)
1484  045C  26 00       	ld	h,0x00
1485  045E  11 00 00    	ld	de,_state_a
1486  0461  19          	add	hl,de
1487  0462  5E          	ld	e, (hl)
1488  0463  DD 7E FF    	ld	a,(ix-1)
1489  0466  F6 04       	or	a,0x04
1490  0468  CB 63       	bit	4, e
1491  046A  28 10       	jr	Z,l_enemy_flip_00102
1492  046C  02          	ld	(bc), a
1493  046D  2A 00 00    	ld	hl,(_enemies)
1494  0470  26 00       	ld	h,0x00
1495  0472  01 00 00    	ld	bc,_state
1496  0475  09          	add	hl,bc
1497  0476  7E          	ld	a,(hl)
1498  0477  E6 F7       	and	a,0xf7
1499  0479  77          	ld	(hl),a
1500  047A  18 0E       	jr	l_enemy_flip_00103
1501  047C              l_enemy_flip_00102:
1502  047C  02          	ld	(bc), a
1503  047D  2A 00 00    	ld	hl,(_enemies)
1504  0480  26 00       	ld	h,0x00
1505  0482  01 00 00    	ld	bc,_state
1506  0485  09          	add	hl,bc
1507  0486  7E          	ld	a,(hl)
1508  0487  E6 F7       	and	a,0xf7
1509  0489  77          	ld	(hl),a
1510  048A              l_enemy_flip_00103:
1511  048A  2A 00 00    	ld	hl,(_enemies)
1512  048D  26 00       	ld	h,0x00
1513  048F  01 00 00    	ld	bc,_tile
1514  0492  09          	add	hl,bc
1515  0493  E5          	push	hl
1516  0494  2A 00 00    	ld	hl,(_enemies)
1517  0497  CD 00 00    	call	_spr_tile
1518  049A  C1          	pop	bc
1519  049B  7D          	ld	a,l
1520  049C  02          	ld	(bc), a
1521  049D              l_enemy_flip_00107:
1522  049D  F1          	pop	af
1523  049E  DD E1       	pop	ix
1524  04A0  C9          	ret
1525  04A1              	SECTION code_compiler
1526  04A1              ;	---------------------------------
1527  04A1              ; Function enemy_flip_sidestepper
1528  04A1              ; ---------------------------------
1529  04A1              _enemy_flip_sidestepper:
1530  04A1  3A 00 00    	ld	a,(_enemies)
1531  04A4  C6 00       	add	a,+((_state) & 0xFF)
1532  04A6  4D          	ld	c,l
1533  04A7  5F          	ld	e,a
1534  04A8  3E 00       	ld	a,+((_state) / 256)
1535  04AA  CE 00       	adc	a,0x00
1536  04AC  57          	ld	d,a
1537  04AD  1A          	ld	a, (de)
1538  04AE  CB 77       	bit	6, a
1539  04B0  28 06       	jr	Z,l_enemy_flip_sidestepper_00102
1540  04B2  69          	ld	l, c
1541  04B3  CD C4 03    	call	_enemy_flip
1542  04B6  18 55       	jr	l_enemy_flip_sidestepper_00104
1543  04B8              l_enemy_flip_sidestepper_00102:
1544  04B8  2E 01       	ld	l,0x01
1545  04BA  CD E5 02    	call	_enemy_flip_change_dir
1546  04BD  2A 00 00    	ld	hl,(_enemies)
1547  04C0  26 00       	ld	h,0x00
1548  04C2  01 00 00    	ld	bc,_state
1549  04C5  09          	add	hl,bc
1550  04C6  7E          	ld	a,(hl)
1551  04C7  EE 01       	xor	a,0x01
1552  04C9  77          	ld	(hl),a
1553  04CA  2A 00 00    	ld	hl,(_enemies)
1554  04CD  26 00       	ld	h,0x00
1555  04CF  01 00 00    	ld	bc,_state
1556  04D2  09          	add	hl,bc
1557  04D3  7E          	ld	a,(hl)
1558  04D4  E6 FD       	and	a,0xfd
1559  04D6  77          	ld	(hl),a
1560  04D7  2A 00 00    	ld	hl,(_enemies)
1561  04DA  26 00       	ld	h,0x00
1562  04DC  01 00 00    	ld	bc,_state
1563  04DF  09          	add	hl,bc
1564  04E0  7E          	ld	a,(hl)
1565  04E1  F6 40       	or	a,0x40
1566  04E3  77          	ld	(hl),a
1567  04E4  2A 00 00    	ld	hl,(_enemies)
1568  04E7  26 00       	ld	h,0x00
1569  04E9  01 00 00    	ld	bc,_jump_lin
1570  04EC  09          	add	hl,bc
1571  04ED  4D          	ld	c,l
1572  04EE  44          	ld	b,h
1573  04EF  2A 00 00    	ld	hl,(_enemies)
1574  04F2  26 00       	ld	h,0x00
1575  04F4  11 00 00    	ld	de,_lin
1576  04F7  19          	add	hl,de
1577  04F8  7E          	ld	a,(hl)
1578  04F9  02          	ld	(bc),a
1579  04FA  2A 00 00    	ld	hl,(_enemies)
1580  04FD  26 00       	ld	h,0x00
1581  04FF  01 00 00    	ld	bc,_tile
1582  0502  09          	add	hl,bc
1583  0503  E5          	push	hl
1584  0504  2A 00 00    	ld	hl,(_enemies)
1585  0507  CD 00 00    	call	_spr_tile
1586  050A  C1          	pop	bc
1587  050B  7D          	ld	a,l
1588  050C  02          	ld	(bc), a
1589  050D              l_enemy_flip_sidestepper_00104:
1590  050D  C9          	ret
1591  050E              	SECTION code_compiler
1592  050E              ;	---------------------------------
1593  050E              ; Function enemy_turn
1594  050E              ; ---------------------------------
1595  050E              _enemy_turn:
1596  050E  21 00 00    	ld	hl,_sprite
1597  0511  36 00       	ld	(hl),0x00
1598  0513              l_enemy_turn_00123:
1599  0513  2A 00 00    	ld	hl,(_sprite)
1600  0516  26 00       	ld	h,0x00
1601  0518  01 00 00    	ld	bc,_class
1602  051B  09          	add	hl,bc
1603  051C  7E          	ld	a,(hl)
1604  051D  B7          	or	a, a
1605  051E  CA 20 06    	jp	Z, l_enemy_turn_00121
1606  0521  21 00 00    	ld	hl,_sprite
1607  0524  CD 00 00    	call	_spr_chktime
1608  0527  7D          	ld	a, l
1609  0528  B7          	or	a, a
1610  0529  CA 20 06    	jp	Z, l_enemy_turn_00121
1611  052C  2A 00 00    	ld	hl,(_sprite)
1612  052F  26 00       	ld	h,0x00
1613  0531  01 00 00    	ld	bc,_lin
1614  0534  09          	add	hl,bc
1615  0535  7E          	ld	a,(hl)
1616  0536  32 00 00    	ld	(_s_lin0),a
1617  0539  2A 00 00    	ld	hl,(_sprite)
1618  053C  26 00       	ld	h,0x00
1619  053E  01 00 00    	ld	bc,_col
1620  0541  09          	add	hl,bc
1621  0542  7E          	ld	a,(hl)
1622  0543  32 00 00    	ld	(_s_col0),a
1623  0546  2A 00 00    	ld	hl,(_sprite)
1624  0549  26 00       	ld	h,0x00
1625  054B  01 00 00    	ld	bc,_tile
1626  054E  09          	add	hl,bc
1627  054F  4E          	ld	c, (hl)
1628  0550  3A 00 00    	ld	a,(_sprite)
1629  0553  5F          	ld	e,a
1630  0554  16 00       	ld	d,0x00
1631  0556  21 00 00    	ld	hl,_colint
1632  0559  19          	add	hl,de
1633  055A  7E          	ld	a,(hl)
1634  055B  81          	add	a,c
1635  055C  32 00 00    	ld	(_s_tile0),a
1636  055F  2A 00 00    	ld	hl,(_sprite)
1637  0562  26 00       	ld	h,0x00
1638  0564  01 00 00    	ld	bc,_state
1639  0567  09          	add	hl,bc
1640  0568  7E          	ld	a,(hl)
1641  0569  32 00 00    	ld	(_s_state),a
1642  056C  2A 00 00    	ld	hl,(_sprite)
1643  056F  26 00       	ld	h,0x00
1644  0571  29          	add	hl,hl
1645  0572  01 00 00    	ld	bc,_last_time
1646  0575  09          	add	hl,bc
1647  0576  ED 5B 00 00 	ld	de,(_curr_time)
1648  057A  73          	ld	(hl),e
1649  057B  23          	inc	hl
1650  057C  72          	ld	(hl),d
1651  057D  21 00 00    	ld	hl,_s_state
1652  0580  7E          	ld	a, (hl)
1653  0581  E6 01       	and	a,0x01
1654  0583  CB 6E       	bit	5, (hl)
1655  0585  28 0C       	jr	Z,l_enemy_turn_00102
1656  0587  B7          	or	a, a
1657  0588  20 09       	jr	NZ,l_enemy_turn_00102
1658  058A  2A 00 00    	ld	hl,(_sprite)
1659  058D  CD 00 00    	call	_spr_killed
1660  0590  C3 20 06    	jp	l_enemy_turn_00121
1661  0593              l_enemy_turn_00102:
1662  0593  21 00 00    	ld	hl,_s_state
1663  0596  CB 66       	bit	4, (hl)
1664  0598  28 31       	jr	Z,l_enemy_turn_00107
1665  059A  21 00 00    	ld	hl,_s_state
1666  059D  CB 4E       	bit	1, (hl)
1667  059F  20 2A       	jr	NZ,l_enemy_turn_00107
1668  05A1  B7          	or	a, a
1669  05A2  20 27       	jr	NZ,l_enemy_turn_00107
1670  05A4  2A 00 00    	ld	hl,(_sprite)
1671  05A7  26 00       	ld	h,0x00
1672  05A9  01 00 00    	ld	bc,_sprite_speed_alt
1673  05AC  09          	add	hl,bc
1674  05AD  36 08       	ld	(hl),0x08
1675  05AF  CD C8 0B    	call	_enemy_standard_hit
1676  05B2  2A 00 00    	ld	hl,(_sprite)
1677  05B5  26 00       	ld	h,0x00
1678  05B7  01 00 00    	ld	bc,_colint
1679  05BA  09          	add	hl,bc
1680  05BB  7E          	ld	a,(hl)
1681  05BC  3C          	inc	a
1682  05BD  77          	ld	(hl),a
1683  05BE  5F          	ld	e,a
1684  05BF  3E 02       	ld	a,0x02
1685  05C1  93          	sub	a,e
1686  05C2  30 02       	jr	NC,l_enemy_turn_00105
1687  05C4  AF          	xor	a,a
1688  05C5  77          	ld	(hl),a
1689  05C6              l_enemy_turn_00105:
1690  05C6  CD 00 00    	call	_spr_redraw
1691  05C9  18 55       	jr	l_enemy_turn_00121
1692  05CB              l_enemy_turn_00107:
1693  05CB  2A 00 00    	ld	hl,(_sprite)
1694  05CE  26 00       	ld	h,0x00
1695  05D0  01 00 00    	ld	bc,_class
1696  05D3  09          	add	hl,bc
1697  05D4  7E          	ld	a,(hl)
1698  05D5  FE 07       	cp	a,0x07
1699  05D7  28 25       	jr	Z,l_enemy_turn_00113
1700  05D9  FE 08       	cp	a,0x08
1701  05DB  28 26       	jr	Z,l_enemy_turn_00114
1702  05DD  FE 09       	cp	a,0x09
1703  05DF  28 18       	jr	Z,l_enemy_turn_00112
1704  05E1  FE 0A       	cp	a,0x0a
1705  05E3  28 0A       	jr	Z,l_enemy_turn_00110
1706  05E5  FE 0B       	cp	a,0x0b
1707  05E7  28 0B       	jr	Z,l_enemy_turn_00111
1708  05E9  D6 0C       	sub	a,0x0c
1709  05EB  28 1B       	jr	Z,l_enemy_turn_00115
1710  05ED  18 1E       	jr	l_enemy_turn_00116
1711  05EF              l_enemy_turn_00110:
1712  05EF  CD 1E 08    	call	_enemy_fireball_red
1713  05F2  18 1C       	jr	l_enemy_turn_00117
1714  05F4              l_enemy_turn_00111:
1715  05F4  CD FC 08    	call	_enemy_fireball_green
1716  05F7  18 17       	jr	l_enemy_turn_00117
1717  05F9              l_enemy_turn_00112:
1718  05F9  CD A8 09    	call	_enemy_fighterfly
1719  05FC  18 12       	jr	l_enemy_turn_00117
1720  05FE              l_enemy_turn_00113:
1721  05FE  CD 9D 06    	call	_enemy_slipice
1722  0601  18 0D       	jr	l_enemy_turn_00117
1723  0603              l_enemy_turn_00114:
1724  0603  CD 00 00    	call	_enemy_coin1
1725  0606  18 08       	jr	l_enemy_turn_00117
1726  0608              l_enemy_turn_00115:
1727  0608  CD 30 00    	call	_enemy_coin2
1728  060B  18 03       	jr	l_enemy_turn_00117
1729  060D              l_enemy_turn_00116:
1730  060D  CD 2C 06    	call	_enemy_standard
1731  0610              l_enemy_turn_00117:
1732  0610  CD 00 00    	call	_spr_redraw
1733  0613  2A 00 00    	ld	hl,(_sprite)
1734  0616  26 00       	ld	h,0x00
1735  0618  01 00 00    	ld	bc,_state
1736  061B  09          	add	hl,bc
1737  061C  3A 00 00    	ld	a,(_s_state)
1738  061F  77          	ld	(hl),a
1739  0620              l_enemy_turn_00121:
1740  0620  21 00 00    	ld	hl,_sprite
1741  0623  7E          	ld	a,(hl)
1742  0624  3C          	inc	a
1743  0625  77          	ld	(hl),a
1744  0626  D6 06       	sub	a,0x06
1745  0628  DA 13 05    	jp	C, l_enemy_turn_00123
1746  062B  C9          	ret
1747  062C              	SECTION code_compiler
1748  062C              ;	---------------------------------
1749  062C              ; Function enemy_standard
1750  062C              ; ---------------------------------
1751  062C              _enemy_standard:
1752  062C  21 00 00    	ld	hl,_s_state
1753  062F  CB 46       	bit	0, (hl)
1754  0631  28 3C       	jr	Z,l_enemy_standard_00108
1755  0633  2A 00 00    	ld	hl,(_sprite)
1756  0636  26 00       	ld	h,0x00
1757  0638  01 00 00    	ld	bc,_sprite_speed_alt
1758  063B  09          	add	hl,bc
1759  063C  36 01       	ld	(hl),0x01
1760  063E  CD 00 00    	call	_spr_move_horizontal
1761  0641  CD 00 00    	call	_spr_move_up
1762  0644  2A 00 00    	ld	hl,(_sprite)
1763  0647  26 00       	ld	h,0x00
1764  0649  5D          	ld	e,l
1765  064A  01 00 00    	ld	bc,_jump_lin
1766  064D  09          	add	hl,bc
1767  064E  4E          	ld	c,(hl)
1768  064F  06 00       	ld	b,0x00
1769  0651  50          	ld	d,b
1770  0652  21 00 00    	ld	hl,_lin
1771  0655  19          	add	hl,de
1772  0656  5E          	ld	e, (hl)
1773  0657  16 00       	ld	d,0x00
1774  0659  79          	ld	a, c
1775  065A  93          	sub	a, e
1776  065B  4F          	ld	c, a
1777  065C  78          	ld	a, b
1778  065D  9A          	sbc	a, d
1779  065E  47          	ld	b, a
1780  065F  79          	ld	a, c
1781  0660  D6 0C       	sub	a,0x0c
1782  0662  78          	ld	a, b
1783  0663  17          	rla
1784  0664  3F          	ccf
1785  0665  1F          	rra
1786  0666  DE 80       	sbc	a,0x80
1787  0668  38 30       	jr	C,l_enemy_standard_00109
1788  066A  CD 00 00    	call	_spr_set_fall
1789  066D  18 2B       	jr	l_enemy_standard_00109
1790  066F              l_enemy_standard_00108:
1791  066F  CD B6 0C    	call	_enemy_walk
1792  0672  2A 00 00    	ld	hl,(_sprite)
1793  0675  26 00       	ld	h,0x00
1794  0677  01 00 00    	ld	bc,_lin
1795  067A  09          	add	hl,bc
1796  067B  7E          	ld	a,(hl)
1797  067C  D6 98       	sub	a,0x98
1798  067E  21 00 00    	ld	hl,_sprite
1799  0681  20 17       	jr	NZ,l_enemy_standard_00109
1800  0683  4E          	ld	c,(hl)
1801  0684  06 00       	ld	b,0x00
1802  0686  21 00 00    	ld	hl,_col
1803  0689  09          	add	hl,bc
1804  068A  7E          	ld	a,(hl)
1805  068B  4F          	ld	c,a
1806  068C  D6 05       	sub	a,0x05
1807  068E  38 05       	jr	C,l_enemy_standard_00103
1808  0690  3E 19       	ld	a,0x19
1809  0692  91          	sub	a, c
1810  0693  30 05       	jr	NC,l_enemy_standard_00109
1811  0695              l_enemy_standard_00103:
1812  0695  21 00 00    	ld	hl,_s_state
1813  0698  CB C6       	set	0, (hl)
1814  069A              l_enemy_standard_00109:
1815  069A  C3 BD 0A    	jp  _enemy_trip
1816  069D              	SECTION code_compiler
1817  069D              ;	---------------------------------
1818  069D              ; Function enemy_slipice
1819  069D              ; ---------------------------------
1820  069D              _enemy_slipice:
1821  069D  3A 00 00    	ld	a,(_phase_left)
1822  06A0  B7          	or	a, a
1823  06A1  CA 1D 08    	jp	Z, l_enemy_slipice_00126
1824  06A4  2A 00 00    	ld	hl,(_sprite)
1825  06A7  26 00       	ld	h,0x00
1826  06A9  01 00 00    	ld	bc,_state
1827  06AC  09          	add	hl,bc
1828  06AD  7E          	ld	a,(hl)
1829  06AE  CB 77       	bit	6, a
1830  06B0  CA 4E 07    	jp	Z,l_enemy_slipice_00122
1831  06B3  76          	halt
1832  06B4  2A 00 00    	ld	hl,(_sprite)
1833  06B7  26 00       	ld	h,0x00
1834  06B9  01 00 00    	ld	bc,_col
1835  06BC  09          	add	hl,bc
1836  06BD  56          	ld	d, (hl)
1837  06BE  2A 00 00    	ld	hl,(_sprite)
1838  06C1  26 00       	ld	h,0x00
1839  06C3  01 00 00    	ld	bc,_lin
1840  06C6  09          	add	hl,bc
1841  06C7  7E          	ld	a,(hl)
1842  06C8  C6 08       	add	a,0x08
1843  06CA  5F          	ld	e,a
1844  06CB  2A 00 00    	ld	hl,(_sprite)
1845  06CE  26 00       	ld	h,0x00
1846  06D0  01 00 00    	ld	bc,_colint
1847  06D3  09          	add	hl,bc
1848  06D4  7E          	ld	a,(hl)
1849  06D5  C6 BD       	add	a,0xbd
1850  06D7  4D          	ld	c,l
1851  06D8  47          	ld	b, a
1852  06D9  D5          	push	de
1853  06DA  C5          	push	bc
1854  06DB  33          	inc	sp
1855  06DC  CD 00 00    	call	_NIRVANAP_drawT_callee
1856  06DF  2A 00 00    	ld	hl,(_sprite)
1857  06E2  26 00       	ld	h,0x00
1858  06E4  01 00 00    	ld	bc,_colint
1859  06E7  09          	add	hl,bc
1860  06E8  7E          	ld	a,(hl)
1861  06E9  3C          	inc	a
1862  06EA  77          	ld	(hl),a
1863  06EB  5F          	ld	e,a
1864  06EC  3E 02       	ld	a,0x02
1865  06EE  93          	sub	a,e
1866  06EF  30 02       	jr	NC,l_enemy_slipice_00102
1867  06F1  AF          	xor	a,a
1868  06F2  77          	ld	(hl),a
1869  06F3              l_enemy_slipice_00102:
1870  06F3  2A 00 00    	ld	hl,(_sprite)
1871  06F6  26 00       	ld	h,0x00
1872  06F8  29          	add	hl, hl
1873  06F9  11 00 00    	ld	de,_spr_timer
1874  06FC  19          	add	hl, de
1875  06FD  4E          	ld	c, (hl)
1876  06FE  23          	inc	hl
1877  06FF  46          	ld	b, (hl)
1878  0700  21 28 00    	ld	hl,0x0028
1879  0703  E5          	push	hl
1880  0704  C5          	push	bc
1881  0705  CD 00 00    	call	_game_check_time
1882  0708  F1          	pop	af
1883  0709  F1          	pop	af
1884  070A  7D          	ld	a, l
1885  070B  B7          	or	a, a
1886  070C  CA 1D 08    	jp	Z, l_enemy_slipice_00126
1887  070F  2A 00 00    	ld	hl,(_sprite)
1888  0712  26 00       	ld	h,0x00
1889  0714  5D          	ld	e,l
1890  0715  01 00 00    	ld	bc,_col
1891  0718  09          	add	hl,bc
1892  0719  46          	ld	b,(hl)
1893  071A  16 00       	ld	d,0x00
1894  071C  21 00 00    	ld	hl,_lin
1895  071F  19          	add	hl,de
1896  0720  7E          	ld	a,(hl)
1897  0721  C6 18       	add	a,0x18
1898  0723  4F          	ld	c,a
1899  0724  C5          	push	bc
1900  0725  CD 00 00    	call	_game_freeze
1901  0728  F1          	pop	af
1902  0729  2A 00 00    	ld	hl,(_sprite)
1903  072C  26 00       	ld	h,0x00
1904  072E  5D          	ld	e,l
1905  072F  01 00 00    	ld	bc,_col
1906  0732  09          	add	hl,bc
1907  0733  46          	ld	b,(hl)
1908  0734  16 00       	ld	d,0x00
1909  0736  21 00 00    	ld	hl,_lin
1910  0739  19          	add	hl,de
1911  073A  7E          	ld	a,(hl)
1912  073B  C6 08       	add	a,0x08
1913  073D  4F          	ld	c,a
1914  073E  C5          	push	bc
1915  073F  AF          	xor	a, a
1916  0740  F5          	push	af
1917  0741  33          	inc	sp
1918  0742  CD 00 00    	call	_NIRVANAP_fillT_callee
1919  0745  2A 00 00    	ld	hl,(_sprite)
1920  0748  CD 00 00    	call	_spr_destroy
1921  074B  C3 1D 08    	jp	l_enemy_slipice_00126
1922  074E              l_enemy_slipice_00122:
1923  074E  CB 47       	bit	0, a
1924  0750  C2 F4 07    	jp	NZ,l_enemy_slipice_00110
1925  0753  CB 4F       	bit	1, a
1926  0755  C2 F4 07    	jp	NZ,l_enemy_slipice_00110
1927  0758  2A 00 00    	ld	hl,(_sprite)
1928  075B  26 00       	ld	h,0x00
1929  075D  01 00 00    	ld	bc,_col
1930  0760  09          	add	hl,bc
1931  0761  7E          	ld	a,(hl)
1932  0762  FE 07       	cp	a,0x07
1933  0764  28 09       	jr	Z,l_enemy_slipice_00116
1934  0766  FE 0F       	cp	a,0x0f
1935  0768  28 05       	jr	Z,l_enemy_slipice_00116
1936  076A  FE 18       	cp	a,0x18
1937  076C  C2 F4 07    	jp	NZ,l_enemy_slipice_00110
1938  076F              l_enemy_slipice_00116:
1939  076F  D6 88       	sub	a,0x88
1940  0771  D2 F4 07    	jp	NC, l_enemy_slipice_00110
1941  0774  CD 00 00    	call	_rand
1942  0777  22 00 00    	ld	(_tmp_ui),hl
1943  077A  2A 00 00    	ld	hl,(_sprite)
1944  077D  26 00       	ld	h,0x00
1945  077F  01 00 00    	ld	bc,_col
1946  0782  09          	add	hl,bc
1947  0783  56          	ld	d, (hl)
1948  0784  2A 00 00    	ld	hl,(_sprite)
1949  0787  26 00       	ld	h,0x00
1950  0789  01 00 00    	ld	bc,_lin
1951  078C  09          	add	hl,bc
1952  078D  7E          	ld	a,(hl)
1953  078E  C6 10       	add	a,0x10
1954  0790  5F          	ld	e, a
1955  0791  D5          	push	de
1956  0792  CD 00 00    	call	_game_calc_index
1957  0795  F1          	pop	af
1958  0796  22 00 00    	ld	(_index1),hl
1959  0799  01 00 00    	ld	bc,_lvl_1
1960  079C  09          	add	hl,bc
1961  079D  7E          	ld	a,(hl)
1962  079E  D6 84       	sub	a,0x84
1963  07A0  20 4D       	jr	NZ,l_enemy_slipice_00106
1964  07A2  21 00 00    	ld	hl,_tmp_ui
1965  07A5  7E          	ld	a, (hl)
1966  07A6  D6 32       	sub	a,0x32
1967  07A8  23          	inc	hl
1968  07A9  7E          	ld	a, (hl)
1969  07AA  DE 33       	sbc	a,0x33
1970  07AC  30 41       	jr	NC,l_enemy_slipice_00106
1971  07AE  21 00 00    	ld	hl,_ay_effect_16
1972  07B1  CD 00 00    	call	_ay_fx_play
1973  07B4  21 00 00    	ld	hl,_s_state
1974  07B7  CB F6       	set	6, (hl)
1975  07B9  01 00 00    	ld	bc,_spr_timer+0
1976  07BC  2A 00 00    	ld	hl,(_sprite)
1977  07BF  26 00       	ld	h,0x00
1978  07C1  29          	add	hl, hl
1979  07C2  09          	add	hl,bc
1980  07C3  ED 5B 00 00 	ld	de,(_curr_time)
1981  07C7  73          	ld	(hl),e
1982  07C8  23          	inc	hl
1983  07C9  72          	ld	(hl),d
1984  07CA  2A 00 00    	ld	hl,(_sprite)
1985  07CD  26 00       	ld	h,0x00
1986  07CF  01 00 00    	ld	bc,_lin
1987  07D2  09          	add	hl,bc
1988  07D3  7E          	ld	a,(hl)
1989  07D4  C6 F8       	add	a,0xf8
1990  07D6  77          	ld	(hl),a
1991  07D7  2A 00 00    	ld	hl,(_sprite)
1992  07DA  26 00       	ld	h,0x00
1993  07DC  01 00 00    	ld	bc,_colint
1994  07DF  09          	add	hl,bc
1995  07E0  AF          	xor	a,a
1996  07E1  77          	ld	(hl),a
1997  07E2  2A 00 00    	ld	hl,(_sprite)
1998  07E5  26 00       	ld	h,0x00
1999  07E7  01 00 00    	ld	bc,_tile
2000  07EA  09          	add	hl,bc
2001  07EB  36 7B       	ld	(hl),0x7b
2002  07ED  18 08       	jr	l_enemy_slipice_00111
2003  07EF              l_enemy_slipice_00106:
2004  07EF  CD B6 0C    	call	_enemy_walk
2005  07F2  18 03       	jr	l_enemy_slipice_00111
2006  07F4              l_enemy_slipice_00110:
2007  07F4  CD B6 0C    	call	_enemy_walk
2008  07F7              l_enemy_slipice_00111:
2009  07F7  2A 00 00    	ld	hl,(_sprite)
2010  07FA  26 00       	ld	h,0x00
2011  07FC  01 00 00    	ld	bc,_lin
2012  07FF  09          	add	hl,bc
2013  0800  7E          	ld	a,(hl)
2014  0801  D6 98       	sub	a,0x98
2015  0803  20 18       	jr	NZ,l_enemy_slipice_00126
2016  0805  2A 00 00    	ld	hl,(_sprite)
2017  0808  26 00       	ld	h,0x00
2018  080A  01 00 00    	ld	bc,_col
2019  080D  09          	add	hl,bc
2020  080E  7E          	ld	a,(hl)
2021  080F  FE 03       	cp	a,0x03
2022  0811  28 04       	jr	Z,l_enemy_slipice_00117
2023  0813  D6 1B       	sub	a,0x1b
2024  0815  20 06       	jr	NZ,l_enemy_slipice_00126
2025  0817              l_enemy_slipice_00117:
2026  0817  2A 00 00    	ld	hl,(_sprite)
2027  081A  CD 00 00    	call	_spr_destroy
2028  081D              l_enemy_slipice_00126:
2029  081D  C9          	ret
2030  081E              	SECTION code_compiler
2031  081E              ;	---------------------------------
2032  081E              ; Function enemy_fireball_red
2033  081E              ; ---------------------------------
2034  081E              _enemy_fireball_red:
2035  081E  3A 00 00    	ld	a,(_phase_left)
2036  0821  B7          	or	a, a
2037  0822  CA FB 08    	jp	Z, l_enemy_fireball_red_00123
2038  0825  CD 00 00    	call	_spr_move_horizontal
2039  0828  2A 00 00    	ld	hl,(_sprite)
2040  082B  26 00       	ld	h,0x00
2041  082D  01 00 00    	ld	bc,_col
2042  0830  09          	add	hl,bc
2043  0831  4E          	ld	c,(hl)
2044  0832  3A 00 00    	ld	a,(_s_col0)
2045  0835  91          	sub	a, c
2046  0836  28 62       	jr	Z,l_enemy_fireball_red_00111
2047  0838  2A FF FF    	ld	hl,(_s_col0 - 1)
2048  083B  3A 00 00    	ld	a,(_s_lin0)
2049  083E  6F          	ld	l,a
2050  083F  E5          	push	hl
2051  0840  CD 00 00    	call	_game_calc_index
2052  0843  F1          	pop	af
2053  0844  22 00 00    	ld	(_index1),hl
2054  0847  21 00 00    	ld	hl,_s_state
2055  084A  CB 56       	bit	2, (hl)
2056  084C  28 0C       	jr	Z,l_enemy_fireball_red_00102
2057  084E  2A 00 00    	ld	hl,(_index1)
2058  0851  11 02 00    	ld	de,0x0002
2059  0854  19          	add	hl,de
2060  0855  22 00 00    	ld	(_index1),hl
2061  0858  18 07       	jr	l_enemy_fireball_red_00103
2062  085A              l_enemy_fireball_red_00102:
2063  085A  2A 00 00    	ld	hl,(_index1)
2064  085D  2B          	dec	hl
2065  085E  22 00 00    	ld	(_index1),hl
2066  0861              l_enemy_fireball_red_00103:
2067  0861  21 00 00    	ld	hl,_s_state
2068  0864  CB 4E       	bit	1, (hl)
2069  0866  28 0A       	jr	Z,l_enemy_fireball_red_00105
2070  0868  2A 00 00    	ld	hl,(_index1)
2071  086B  11 20 00    	ld	de,0x0020
2072  086E  19          	add	hl,de
2073  086F  22 00 00    	ld	(_index1),hl
2074  0872              l_enemy_fireball_red_00105:
2075  0872  01 00 00    	ld	bc,_lvl_1
2076  0875  2A 00 00    	ld	hl,(_index1)
2077  0878  09          	add	hl,bc
2078  0879  4E          	ld	c, (hl)
2079  087A  3E 8C       	ld	a,0x8c
2080  087C  91          	sub	a, c
2081  087D  30 14       	jr	NC,l_enemy_fireball_red_00106
2082  087F  2A 00 00    	ld	hl,(_sprite)
2083  0882  26 00       	ld	h,0x00
2084  0884  01 00 00    	ld	bc,_col
2085  0887  09          	add	hl,bc
2086  0888  7E          	ld	a,(hl)
2087  0889  4F          	ld	c,a
2088  088A  D6 01       	sub	a,0x01
2089  088C  38 05       	jr	C,l_enemy_fireball_red_00106
2090  088E  3E 1D       	ld	a,0x1d
2091  0890  91          	sub	a, c
2092  0891  30 07       	jr	NC,l_enemy_fireball_red_00111
2093  0893              l_enemy_fireball_red_00106:
2094  0893  21 00 00    	ld	hl,_s_state
2095  0896  7E          	ld	a, (hl)
2096  0897  EE 0C       	xor	a,+(0x04^0x08)
2097  0899  77          	ld	(hl),a
2098  089A              l_enemy_fireball_red_00111:
2099  089A  21 00 00    	ld	hl,_s_state
2100  089D  CB 46       	bit	0, (hl)
2101  089F  28 0C       	jr	Z,l_enemy_fireball_red_00117
2102  08A1  CD 00 00    	call	_spr_move_up
2103  08A4  7D          	ld	a, l
2104  08A5  B7          	or	a, a
2105  08A6  28 15       	jr	Z,l_enemy_fireball_red_00118
2106  08A8  CD 00 00    	call	_spr_set_fall
2107  08AB  18 10       	jr	l_enemy_fireball_red_00118
2108  08AD              l_enemy_fireball_red_00117:
2109  08AD  CD 00 00    	call	_spr_move_down
2110  08B0  7D          	ld	a, l
2111  08B1  B7          	or	a, a
2112  08B2  28 09       	jr	Z,l_enemy_fireball_red_00118
2113  08B4  21 00 00    	ld	hl,_s_state
2114  08B7  7E          	ld	a,(hl)
2115  08B8  E6 FD       	and	a,0xfd
2116  08BA  F6 01       	or	a,0x01
2117  08BC  77          	ld	(hl),a
2118  08BD              l_enemy_fireball_red_00118:
2119  08BD  01 00 00    	ld	bc,_spr_timer+0
2120  08C0  2A 00 00    	ld	hl,(_sprite)
2121  08C3  26 00       	ld	h,0x00
2122  08C5  29          	add	hl, hl
2123  08C6  09          	add	hl, bc
2124  08C7  5E          	ld	e, (hl)
2125  08C8  23          	inc	hl
2126  08C9  56          	ld	d, (hl)
2127  08CA  C5          	push	bc
2128  08CB  21 DC 05    	ld	hl,0x05dc
2129  08CE  E5          	push	hl
2130  08CF  D5          	push	de
2131  08D0  CD 00 00    	call	_game_check_time
2132  08D3  F1          	pop	af
2133  08D4  F1          	pop	af
2134  08D5  C1          	pop	bc
2135  08D6  7D          	ld	a,l
2136  08D7  B7          	or	a, a
2137  08D8  C8          	ret	Z
2138  08D9  2A 00 00    	ld	hl,(_sprite)
2139  08DC  26 00       	ld	h,0x00
2140  08DE  29          	add	hl, hl
2141  08DF  09          	add	hl,bc
2142  08E0  ED 5B 00 00 	ld	de,(_curr_time)
2143  08E4  73          	ld	(hl),e
2144  08E5  23          	inc	hl
2145  08E6  72          	ld	(hl),d
2146  08E7  2A 00 00    	ld	hl,(_sprite)
2147  08EA  26 00       	ld	h,0x00
2148  08EC  01 00 00    	ld	bc,_sprite_speed_alt
2149  08EF  09          	add	hl,bc
2150  08F0  36 08       	ld	(hl),0x08
2151  08F2  21 00 00    	ld	hl,_s_state
2152  08F5  7E          	ld	a,(hl)
2153  08F6  F6 20       	or	a,0x20
2154  08F8  E6 FC       	and	a,+(0xfe&0xfd)
2155  08FA  77          	ld	(hl),a
2156  08FB              l_enemy_fireball_red_00123:
2157  08FB  C9          	ret
2158  08FC              	SECTION code_compiler
2159  08FC              ;	---------------------------------
2160  08FC              ; Function enemy_fireball_green
2161  08FC              ; ---------------------------------
2162  08FC              _enemy_fireball_green:
2163  08FC  3A 00 00    	ld	a,(_phase_left)
2164  08FF  B7          	or	a, a
2165  0900  CA A7 09    	jp	Z, l_enemy_fireball_green_00113
2166  0903  2A 00 00    	ld	hl,(_sprite)
2167  0906  26 00       	ld	h,0x00
2168  0908  5D          	ld	e,l
2169  0909  01 00 00    	ld	bc,_jump_lin
2170  090C  09          	add	hl,bc
2171  090D  4E          	ld	c,(hl)
2172  090E  06 00       	ld	b,0x00
2173  0910  50          	ld	d,b
2174  0911  21 00 00    	ld	hl,_lin
2175  0914  19          	add	hl,de
2176  0915  5E          	ld	e, (hl)
2177  0916  16 00       	ld	d,0x00
2178  0918  79          	ld	a, c
2179  0919  93          	sub	a, e
2180  091A  6F          	ld	l, a
2181  091B  78          	ld	a, b
2182  091C  9A          	sbc	a, d
2183  091D  67          	ld	h, a
2184  091E  CD 00 00    	call	_abs_fastcall
2185  0921  22 00 00    	ld	(_index1),hl
2186  0924  3E 08       	ld	a,0x08
2187  0926  21 00 00    	ld	hl,_index1
2188  0929  BE          	cp	a, (hl)
2189  092A  3E 00       	ld	a,0x00
2190  092C  23          	inc	hl
2191  092D  9E          	sbc	a, (hl)
2192  092E  30 1E       	jr	NC,l_enemy_fireball_green_00102
2193  0930  21 00 00    	ld	hl,_s_state
2194  0933  7E          	ld	a, (hl)
2195  0934  EE 03       	xor	a,+(0x01^0x02)
2196  0936  77          	ld	(hl),a
2197  0937  2A 00 00    	ld	hl,(_sprite)
2198  093A  26 00       	ld	h,0x00
2199  093C  01 00 00    	ld	bc,_jump_lin
2200  093F  09          	add	hl,bc
2201  0940  3A 00 00    	ld	a,(_sprite)
2202  0943  5F          	ld	e,a
2203  0944  16 00       	ld	d,0x00
2204  0946  4D          	ld	c,l
2205  0947  44          	ld	b,h
2206  0948  21 00 00    	ld	hl,_lin
2207  094B  19          	add	hl,de
2208  094C  7E          	ld	a,(hl)
2209  094D  02          	ld	(bc), a
2210  094E              l_enemy_fireball_green_00102:
2211  094E  21 00 00    	ld	hl,_s_state
2212  0951  CB 46       	bit	0, (hl)
2213  0953  28 08       	jr	Z,l_enemy_fireball_green_00104
2214  0955  CD 00 00    	call	_spr_move_horizontal
2215  0958  CD 00 00    	call	_spr_move_up
2216  095B  18 06       	jr	l_enemy_fireball_green_00105
2217  095D              l_enemy_fireball_green_00104:
2218  095D  CD 00 00    	call	_spr_move_horizontal
2219  0960  CD 00 00    	call	_spr_move_down
2220  0963              l_enemy_fireball_green_00105:
2221  0963  2A 00 00    	ld	hl,(_sprite)
2222  0966  26 00       	ld	h,0x00
2223  0968  01 00 00    	ld	bc,_col
2224  096B  09          	add	hl,bc
2225  096C  7E          	ld	a,(hl)
2226  096D  B7          	or	a, a
2227  096E  20 07       	jr	NZ,l_enemy_fireball_green_00110
2228  0970  21 00 00    	ld	hl,_s_state
2229  0973  CB 5E       	bit	3, (hl)
2230  0975  20 0B       	jr	NZ,l_enemy_fireball_green_00106
2231  0977              l_enemy_fireball_green_00110:
2232  0977  D6 1E       	sub	a,0x1e
2233  0979  20 2C       	jr	NZ,l_enemy_fireball_green_00113
2234  097B  21 00 00    	ld	hl,_s_state
2235  097E  CB 56       	bit	2, (hl)
2236  0980  28 25       	jr	Z,l_enemy_fireball_green_00113
2237  0982              l_enemy_fireball_green_00106:
2238  0982  01 00 00    	ld	bc,_spr_timer+0
2239  0985  2A 00 00    	ld	hl,(_sprite)
2240  0988  26 00       	ld	h,0x00
2241  098A  29          	add	hl, hl
2242  098B  09          	add	hl,bc
2243  098C  ED 5B 00 00 	ld	de,(_curr_time)
2244  0990  73          	ld	(hl),e
2245  0991  23          	inc	hl
2246  0992  72          	ld	(hl),d
2247  0993  2A 00 00    	ld	hl,(_sprite)
2248  0996  26 00       	ld	h,0x00
2249  0998  01 00 00    	ld	bc,_sprite_speed_alt
2250  099B  09          	add	hl,bc
2251  099C  36 08       	ld	(hl),0x08
2252  099E  21 00 00    	ld	hl,_s_state
2253  09A1  7E          	ld	a,(hl)
2254  09A2  F6 20       	or	a,0x20
2255  09A4  E6 FE       	and	a,0xfe
2256  09A6  77          	ld	(hl),a
2257  09A7              l_enemy_fireball_green_00113:
2258  09A7  C9          	ret
2259  09A8              	SECTION code_compiler
2260  09A8              ;	---------------------------------
2261  09A8              ; Function enemy_fighterfly
2262  09A8              ; ---------------------------------
2263  09A8              _enemy_fighterfly:
2264  09A8  21 00 00    	ld	hl,_s_state
2265  09AB  CB 46       	bit	0, (hl)
2266  09AD  20 59       	jr	NZ,l_enemy_fighterfly_00106
2267  09AF  21 00 00    	ld	hl,_s_state
2268  09B2  CB 4E       	bit	1, (hl)
2269  09B4  20 52       	jr	NZ,l_enemy_fighterfly_00106
2270  09B6  CD 00 00    	call	_ay_is_playing
2271  09B9  7D          	ld	a, l
2272  09BA  D6 02       	sub	a,0x02
2273  09BC  30 06       	jr	NC,l_enemy_fighterfly_00102
2274  09BE  21 00 00    	ld	hl,_ay_effect_13
2275  09C1  CD 00 00    	call	_ay_fx_play
2276  09C4              l_enemy_fighterfly_00102:
2277  09C4  2A 00 00    	ld	hl,(_sprite)
2278  09C7  26 00       	ld	h,0x00
2279  09C9  29          	add	hl, hl
2280  09CA  11 00 00    	ld	de,_spr_timer
2281  09CD  19          	add	hl, de
2282  09CE  4E          	ld	c, (hl)
2283  09CF  23          	inc	hl
2284  09D0  46          	ld	b, (hl)
2285  09D1  21 28 00    	ld	hl,0x0028
2286  09D4  E5          	push	hl
2287  09D5  C5          	push	bc
2288  09D6  CD 00 00    	call	_game_check_time
2289  09D9  F1          	pop	af
2290  09DA  F1          	pop	af
2291  09DB  7D          	ld	a, l
2292  09DC  B7          	or	a, a
2293  09DD  28 29       	jr	Z,l_enemy_fighterfly_00106
2294  09DF  21 00 00    	ld	hl,_s_state
2295  09E2  CB C6       	set	0, (hl)
2296  09E4  2A 00 00    	ld	hl,(_sprite)
2297  09E7  26 00       	ld	h,0x00
2298  09E9  01 00 00    	ld	bc,_jump_lin
2299  09EC  09          	add	hl,bc
2300  09ED  4D          	ld	c,l
2301  09EE  44          	ld	b,h
2302  09EF  2A 00 00    	ld	hl,(_sprite)
2303  09F2  26 00       	ld	h,0x00
2304  09F4  11 00 00    	ld	de,_lin
2305  09F7  19          	add	hl,de
2306  09F8  7E          	ld	a,(hl)
2307  09F9  02          	ld	(bc),a
2308  09FA  2A 00 00    	ld	hl,(_sprite)
2309  09FD  26 00       	ld	h,0x00
2310  09FF  29          	add	hl, hl
2311  0A00  11 00 00    	ld	de,_spr_timer
2312  0A03  19          	add	hl, de
2313  0A04  AF          	xor	a, a
2314  0A05  77          	ld	(hl), a
2315  0A06  23          	inc	hl
2316  0A07  77          	ld	(hl), a
2317  0A08              l_enemy_fighterfly_00106:
2318  0A08  21 00 00    	ld	hl,_s_state
2319  0A0B  CB 46       	bit	0, (hl)
2320  0A0D  28 32       	jr	Z,l_enemy_fighterfly_00123
2321  0A0F  2A 00 00    	ld	hl,(_sprite)
2322  0A12  26 00       	ld	h,0x00
2323  0A14  5D          	ld	e,l
2324  0A15  01 00 00    	ld	bc,_jump_lin
2325  0A18  09          	add	hl,bc
2326  0A19  4E          	ld	c,(hl)
2327  0A1A  06 00       	ld	b,0x00
2328  0A1C  50          	ld	d,b
2329  0A1D  21 00 00    	ld	hl,_lin
2330  0A20  19          	add	hl,de
2331  0A21  5E          	ld	e, (hl)
2332  0A22  16 00       	ld	d,0x00
2333  0A24  79          	ld	a, c
2334  0A25  93          	sub	a, e
2335  0A26  4F          	ld	c, a
2336  0A27  78          	ld	a, b
2337  0A28  9A          	sbc	a, d
2338  0A29  47          	ld	b, a
2339  0A2A  79          	ld	a, c
2340  0A2B  D6 08       	sub	a,0x08
2341  0A2D  78          	ld	a, b
2342  0A2E  17          	rla
2343  0A2F  3F          	ccf
2344  0A30  1F          	rra
2345  0A31  DE 80       	sbc	a,0x80
2346  0A33  38 03       	jr	C,l_enemy_fighterfly_00109
2347  0A35  CD 00 00    	call	_spr_set_fall
2348  0A38              l_enemy_fighterfly_00109:
2349  0A38  CD 00 00    	call	_spr_move_horizontal
2350  0A3B  CD 00 00    	call	_spr_move_up
2351  0A3E  C3 BA 0A    	jp	l_enemy_fighterfly_00124
2352  0A41              l_enemy_fighterfly_00123:
2353  0A41  01 00 00    	ld	bc,_spr_timer+0
2354  0A44  2A 00 00    	ld	hl,(_sprite)
2355  0A47  26 00       	ld	h,0x00
2356  0A49  29          	add	hl, hl
2357  0A4A  09          	add	hl,bc
2358  0A4B  5E          	ld	e,(hl)
2359  0A4C  4D          	ld	c,l
2360  0A4D  44          	ld	b,h
2361  0A4E  23          	inc	hl
2362  0A4F  7E          	ld	a, (hl)
2363  0A50  B3          	or	a,e
2364  0A51  20 09       	jr	NZ,l_enemy_fighterfly_00111
2365  0A53  ED 5B 00 00 	ld	de,(_curr_time)
2366  0A57  7B          	ld	a, e
2367  0A58  02          	ld	(bc), a
2368  0A59  03          	inc	bc
2369  0A5A  7A          	ld	a, d
2370  0A5B  02          	ld	(bc), a
2371  0A5C              l_enemy_fighterfly_00111:
2372  0A5C  21 00 00    	ld	hl,_s_state
2373  0A5F  CB 4E       	bit	1, (hl)
2374  0A61  28 57       	jr	Z,l_enemy_fighterfly_00124
2375  0A63  2A 00 00    	ld	hl,(_sprite)
2376  0A66  26 00       	ld	h,0x00
2377  0A68  01 00 00    	ld	bc,_lin
2378  0A6B  09          	add	hl,bc
2379  0A6C  4E          	ld	c, (hl)
2380  0A6D  3A 00 00    	ld	a,(_sprite)
2381  0A70  5F          	ld	e,a
2382  0A71  16 00       	ld	d,0x00
2383  0A73  21 00 00    	ld	hl,_jump_lin
2384  0A76  19          	add	hl,de
2385  0A77  46          	ld	b, (hl)
2386  0A78  79          	ld	a, c
2387  0A79  90          	sub	a, b
2388  0A7A  30 05       	jr	NC,l_enemy_fighterfly_00116
2389  0A7C  CD 00 00    	call	_spr_move_horizontal
2390  0A7F  18 21       	jr	l_enemy_fighterfly_00117
2391  0A81              l_enemy_fighterfly_00116:
2392  0A81  2A 00 00    	ld	hl,(_sprite)
2393  0A84  26 00       	ld	h,0x00
2394  0A86  01 00 00    	ld	bc,_sprite_speed_alt
2395  0A89  09          	add	hl,bc
2396  0A8A  36 04       	ld	(hl),0x04
2397  0A8C  2A 00 00    	ld	hl,(_sprite)
2398  0A8F  26 00       	ld	h,0x00
2399  0A91  01 00 00    	ld	bc,_colint
2400  0A94  09          	add	hl,bc
2401  0A95  7E          	ld	a,(hl)
2402  0A96  B7          	or	a,a
2403  0A97  4D          	ld	c,l
2404  0A98  44          	ld	b,h
2405  0A99  20 05       	jr	NZ,l_enemy_fighterfly_00113
2406  0A9B  3E 02       	ld	a,0x02
2407  0A9D  02          	ld	(bc), a
2408  0A9E  18 02       	jr	l_enemy_fighterfly_00117
2409  0AA0              l_enemy_fighterfly_00113:
2410  0AA0  AF          	xor	a, a
2411  0AA1  02          	ld	(bc), a
2412  0AA2              l_enemy_fighterfly_00117:
2413  0AA2  CD 00 00    	call	_spr_move_down
2414  0AA5  7D          	ld	a, l
2415  0AA6  B7          	or	a, a
2416  0AA7  CA BD 0A    	jp	Z,_enemy_trip
2417  0AAA  2A 00 00    	ld	hl,(_sprite)
2418  0AAD  26 00       	ld	h,0x00
2419  0AAF  01 00 00    	ld	bc,_sprite_speed_alt
2420  0AB2  09          	add	hl,bc
2421  0AB3  AF          	xor	a,a
2422  0AB4  77          	ld	(hl),a
2423  0AB5  21 00 00    	ld	hl,_s_state
2424  0AB8  CB 8E       	res	1, (hl)
2425  0ABA              l_enemy_fighterfly_00124:
2426  0ABA  C3 BD 0A    	jp  _enemy_trip
2427  0ABD              	SECTION code_compiler
2428  0ABD              ;	---------------------------------
2429  0ABD              ; Function enemy_trip
2430  0ABD              ; ---------------------------------
2431  0ABD              _enemy_trip:
2432  0ABD  2A 00 00    	ld	hl,(_sprite)
2433  0AC0  26 00       	ld	h,0x00
2434  0AC2  01 00 00    	ld	bc,_lin
2435  0AC5  09          	add	hl,bc
2436  0AC6  4E          	ld	c,(hl)
2437  0AC7  3E 80       	ld	a,0x80
2438  0AC9  91          	sub	a, c
2439  0ACA  30 7C       	jr	NC,l_enemy_trip_00110
2440  0ACC  21 00 00    	ld	hl,_tmp
2441  0ACF  36 00       	ld	(hl),0x00
2442  0AD1  2A 00 00    	ld	hl,(_sprite)
2443  0AD4  26 00       	ld	h,0x00
2444  0AD6  01 00 00    	ld	bc,_col
2445  0AD9  09          	add	hl,bc
2446  0ADA  7E          	ld	a,(hl)
2447  0ADB  D6 1B       	sub	a,0x1b
2448  0ADD  20 0D       	jr	NZ,l_enemy_trip_00102
2449  0ADF  21 03 02    	ld	hl,0x0203
2450  0AE2  E5          	push	hl
2451  0AE3  21 10 1A    	ld	hl,0x1a10
2452  0AE6  E5          	push	hl
2453  0AE7  CD 49 0B    	call	_enemy_trip_move
2454  0AEA  F1          	pop	af
2455  0AEB  F1          	pop	af
2456  0AEC              l_enemy_trip_00102:
2457  0AEC  2A 00 00    	ld	hl,(_sprite)
2458  0AEF  26 00       	ld	h,0x00
2459  0AF1  01 00 00    	ld	bc,_col
2460  0AF4  09          	add	hl,bc
2461  0AF5  7E          	ld	a,(hl)
2462  0AF6  D6 03       	sub	a,0x03
2463  0AF8  20 0D       	jr	NZ,l_enemy_trip_00104
2464  0AFA  21 02 03    	ld	hl,0x0302
2465  0AFD  E5          	push	hl
2466  0AFE  21 10 04    	ld	hl,0x0410
2467  0B01  E5          	push	hl
2468  0B02  CD 49 0B    	call	_enemy_trip_move
2469  0B05  F1          	pop	af
2470  0B06  F1          	pop	af
2471  0B07              l_enemy_trip_00104:
2472  0B07  3A 00 00    	ld	a,(_tmp)
2473  0B0A  B7          	or	a, a
2474  0B0B  C8          	ret	Z
2475  0B0C  2A 00 00    	ld	hl,(_sprite)
2476  0B0F  26 00       	ld	h,0x00
2477  0B11  01 00 00    	ld	bc,_class
2478  0B14  09          	add	hl,bc
2479  0B15  4E          	ld	c,(hl)
2480  0B16  3E 03       	ld	a,0x03
2481  0B18  91          	sub	a,c
2482  0B19  D8          	ret	C
2483  0B1A  2A 00 00    	ld	hl,(_sprite)
2484  0B1D  26 00       	ld	h,0x00
2485  0B1F  01 00 00    	ld	bc,_colint
2486  0B22  09          	add	hl,bc
2487  0B23  AF          	xor	a,a
2488  0B24  77          	ld	(hl),a
2489  0B25  2A 00 00    	ld	hl,(_sprite)
2490  0B28  26 00       	ld	h,0x00
2491  0B2A  01 00 00    	ld	bc,_state
2492  0B2D  09          	add	hl,bc
2493  0B2E  3A 00 00    	ld	a,(_s_state)
2494  0B31  77          	ld	(hl),a
2495  0B32  2A 00 00    	ld	hl,(_sprite)
2496  0B35  26 00       	ld	h,0x00
2497  0B37  01 00 00    	ld	bc,_tile
2498  0B3A  09          	add	hl,bc
2499  0B3B  E5          	push	hl
2500  0B3C  2A 00 00    	ld	hl,(_sprite)
2501  0B3F  CD 00 00    	call	_spr_tile
2502  0B42  C1          	pop	bc
2503  0B43  7D          	ld	a,l
2504  0B44  02          	ld	(bc), a
2505  0B45  CD 00 00    	call	_spr_set_fall
2506  0B48              l_enemy_trip_00110:
2507  0B48  C9          	ret
2508  0B49              	SECTION code_compiler
2509  0B49              ;	---------------------------------
2510  0B49              ; Function enemy_trip_move
2511  0B49              ; ---------------------------------
2512  0B49              _enemy_trip_move:
2513  0B49  CD 00 00    	call	___sdcc_enter_ix
2514  0B4C  21 00 00    	ld	hl,_tmp
2515  0B4F  36 01       	ld	(hl),0x01
2516  0B51  76          	halt
2517  0B52  2A FF FF    	ld	hl,(_s_col0 - 1)
2518  0B55  3A 00 00    	ld	a,(_s_lin0)
2519  0B58  6F          	ld	l,a
2520  0B59  E5          	push	hl
2521  0B5A  AF          	xor	a, a
2522  0B5B  F5          	push	af
2523  0B5C  33          	inc	sp
2524  0B5D  CD 00 00    	call	_NIRVANAP_fillT_callee
2525  0B60  2A 00 00    	ld	hl,(_sprite)
2526  0B63  26 00       	ld	h,0x00
2527  0B65  01 00 00    	ld	bc,_lin
2528  0B68  09          	add	hl,bc
2529  0B69  4D          	ld	c,l
2530  0B6A  44          	ld	b,h
2531  0B6B  21 00 00    	ld	hl,_sprite
2532  0B6E  DD 7E 04    	ld	a,(ix+4)
2533  0B71  02          	ld	(bc), a
2534  0B72  3E 00       	ld	a, +((_jump_lin) & 0xFF)
2535  0B74  86          	add	a, (hl)
2536  0B75  4F          	ld	c, a
2537  0B76  3E 00       	ld	a, +((_jump_lin) / 256)
2538  0B78  CE 00       	adc	a,0x00
2539  0B7A  47          	ld	b, a
2540  0B7B  DD 7E 04    	ld	a,(ix+4)
2541  0B7E  C6 10       	add	a,0x10
2542  0B80  02          	ld	(bc), a
2543  0B81  3E 00       	ld	a, +((_col) & 0xFF)
2544  0B83  86          	add	a, (hl)
2545  0B84  4F          	ld	c, a
2546  0B85  3E 00       	ld	a, +((_col) / 256)
2547  0B87  CE 00       	adc	a,0x00
2548  0B89  47          	ld	b, a
2549  0B8A  DD 7E 05    	ld	a,(ix+5)
2550  0B8D  02          	ld	(bc), a
2551  0B8E  DD 46 06    	ld	b,(ix+6)
2552  0B91  0E 01       	ld	c,0x01
2553  0B93  04          	inc	b
2554  0B94  18 02       	jr	l_enemy_trip_move_00110
2555  0B96              l_enemy_trip_move_00109:
2556  0B96  CB 21       	sla	c
2557  0B98              l_enemy_trip_move_00110:
2558  0B98  10 FC       	djnz	l_enemy_trip_move_00109
2559  0B9A  21 00 00    	ld	hl,_s_state
2560  0B9D  7E          	ld	a, (hl)
2561  0B9E  B1          	or	a, c
2562  0B9F  77          	ld	(hl), a
2563  0BA0  DD 46 07    	ld	b,(ix+7)
2564  0BA3  0E 01       	ld	c,0x01
2565  0BA5  04          	inc	b
2566  0BA6  18 02       	jr	l_enemy_trip_move_00112
2567  0BA8              l_enemy_trip_move_00111:
2568  0BA8  CB 21       	sla	c
2569  0BAA              l_enemy_trip_move_00112:
2570  0BAA  10 FC       	djnz	l_enemy_trip_move_00111
2571  0BAC  79          	ld	a, c
2572  0BAD  2F          	cpl
2573  0BAE  4F          	ld	c, a
2574  0BAF  7E          	ld	a, (hl)
2575  0BB0  A1          	and	a, c
2576  0BB1  E6 FE       	and	a,0xfe
2577  0BB3  77          	ld	(hl),a
2578  0BB4  CD 00 00    	call	_sound_enter_enemy
2579  0BB7  CD 00 00    	call	_ay_is_playing
2580  0BBA  7D          	ld	a, l
2581  0BBB  D6 02       	sub	a,0x02
2582  0BBD  30 06       	jr	NC,l_enemy_trip_move_00103
2583  0BBF  21 00 00    	ld	hl,_ay_effect_04
2584  0BC2  CD 00 00    	call	_ay_fx_play
2585  0BC5              l_enemy_trip_move_00103:
2586  0BC5  DD E1       	pop	ix
2587  0BC7  C9          	ret
2588  0BC8              	SECTION code_compiler
2589  0BC8              ;	---------------------------------
2590  0BC8              ; Function enemy_standard_hit
2591  0BC8              ; ---------------------------------
2592  0BC8              _enemy_standard_hit:
2593  0BC8  2A 00 00    	ld	hl,(_game_time_flipped)
2594  0BCB  01 CE FF    	ld	bc,0xffce
2595  0BCE  09          	add	hl,bc
2596  0BCF  4D          	ld	c,l
2597  0BD0  44          	ld	b,h
2598  0BD1  2A 00 00    	ld	hl,(_sprite)
2599  0BD4  26 00       	ld	h,0x00
2600  0BD6  29          	add	hl, hl
2601  0BD7  11 00 00    	ld	de,_spr_timer
2602  0BDA  19          	add	hl, de
2603  0BDB  5E          	ld	e, (hl)
2604  0BDC  23          	inc	hl
2605  0BDD  56          	ld	d, (hl)
2606  0BDE  C5          	push	bc
2607  0BDF  D5          	push	de
2608  0BE0  CD 00 00    	call	_game_check_time
2609  0BE3  F1          	pop	af
2610  0BE4  F1          	pop	af
2611  0BE5  7D          	ld	a, l
2612  0BE6  B7          	or	a, a
2613  0BE7  28 20       	jr	Z,l_enemy_standard_hit_00104
2614  0BE9  2A 00 00    	ld	hl,(_sprite)
2615  0BEC  26 00       	ld	h,0x00
2616  0BEE  01 00 00    	ld	bc,_state
2617  0BF1  09          	add	hl,bc
2618  0BF2  7E          	ld	a,(hl)
2619  0BF3  07          	rlca
2620  0BF4  38 13       	jr	C,l_enemy_standard_hit_00104
2621  0BF6  2A 00 00    	ld	hl,(_sprite)
2622  0BF9  CD 43 0C    	call	_enemy_evolve
2623  0BFC  2A 00 00    	ld	hl,(_sprite)
2624  0BFF  26 00       	ld	h,0x00
2625  0C01  01 00 00    	ld	bc,_state
2626  0C04  09          	add	hl,bc
2627  0C05  7E          	ld	a,(hl)
2628  0C06  F6 80       	or	a,0x80
2629  0C08  77          	ld	(hl),a
2630  0C09              l_enemy_standard_hit_00104:
2631  0C09  2A 00 00    	ld	hl,(_sprite)
2632  0C0C  26 00       	ld	h,0x00
2633  0C0E  29          	add	hl, hl
2634  0C0F  11 00 00    	ld	de,_spr_timer
2635  0C12  19          	add	hl, de
2636  0C13  4E          	ld	c, (hl)
2637  0C14  23          	inc	hl
2638  0C15  46          	ld	b, (hl)
2639  0C16  2A 00 00    	ld	hl,(_game_time_flipped)
2640  0C19  E5          	push	hl
2641  0C1A  C5          	push	bc
2642  0C1B  CD 00 00    	call	_game_check_time
2643  0C1E  F1          	pop	af
2644  0C1F  F1          	pop	af
2645  0C20  7D          	ld	a, l
2646  0C21  B7          	or	a, a
2647  0C22  C8          	ret	Z
2648  0C23  3A 00 00    	ld	a,(_sprite)
2649  0C26  32 00 00    	ld	(_enemies),a
2650  0C29  2A 00 00    	ld	hl,(_sprite)
2651  0C2C  CD 00 00    	call	_spr_tile
2652  0C2F  CD C4 03    	call	_enemy_flip
2653  0C32  2A 00 00    	ld	hl,(_sprite)
2654  0C35  26 00       	ld	h,0x00
2655  0C37  01 00 00    	ld	bc,_state
2656  0C3A  09          	add	hl,bc
2657  0C3B  7E          	ld	a,(hl)
2658  0C3C  32 00 00    	ld	(_s_state),a
2659  0C3F  E6 7F       	and	a,0x7f
2660  0C41  77          	ld	(hl),a
2661  0C42  C9          	ret
2662  0C43              	SECTION code_compiler
2663  0C43              ;	---------------------------------
2664  0C43              ; Function enemy_evolve
2665  0C43              ; ---------------------------------
2666  0C43              _enemy_evolve:
2667  0C43  45          	ld	b,l
2668  0C44  11 00 00    	ld	de,_class+0
2669  0C47  26 00       	ld	h,0x00
2670  0C49  19          	add	hl, de
2671  0C4A  7E          	ld	a, (hl)
2672  0C4B  FE 01       	cp	a,0x01
2673  0C4D  28 0E       	jr	Z,l_enemy_evolve_00101
2674  0C4F  FE 02       	cp	a,0x02
2675  0C51  28 17       	jr	Z,l_enemy_evolve_00102
2676  0C53  FE 04       	cp	a,0x04
2677  0C55  28 20       	jr	Z,l_enemy_evolve_00103
2678  0C57  D6 05       	sub	a,0x05
2679  0C59  28 29       	jr	Z,l_enemy_evolve_00104
2680  0C5B  18 32       	jr	l_enemy_evolve_00106
2681  0C5D              l_enemy_evolve_00101:
2682  0C5D  21 02 3C    	ld	hl,0x3c02
2683  0C60  E5          	push	hl
2684  0C61  C5          	push	bc
2685  0C62  33          	inc	sp
2686  0C63  CD 90 0C    	call	_enemy_upgrade
2687  0C66  F1          	pop	af
2688  0C67  33          	inc	sp
2689  0C68  18 25       	jr	l_enemy_evolve_00106
2690  0C6A              l_enemy_evolve_00102:
2691  0C6A  21 03 48    	ld	hl,0x4803
2692  0C6D  E5          	push	hl
2693  0C6E  C5          	push	bc
2694  0C6F  33          	inc	sp
2695  0C70  CD 90 0C    	call	_enemy_upgrade
2696  0C73  F1          	pop	af
2697  0C74  33          	inc	sp
2698  0C75  18 18       	jr	l_enemy_evolve_00106
2699  0C77              l_enemy_evolve_00103:
2700  0C77  21 05 60    	ld	hl,0x6005
2701  0C7A  E5          	push	hl
2702  0C7B  C5          	push	bc
2703  0C7C  33          	inc	sp
2704  0C7D  CD 90 0C    	call	_enemy_upgrade
2705  0C80  F1          	pop	af
2706  0C81  33          	inc	sp
2707  0C82  18 0B       	jr	l_enemy_evolve_00106
2708  0C84              l_enemy_evolve_00104:
2709  0C84  21 06 6C    	ld	hl,0x6c06
2710  0C87  E5          	push	hl
2711  0C88  C5          	push	bc
2712  0C89  33          	inc	sp
2713  0C8A  CD 90 0C    	call	_enemy_upgrade
2714  0C8D  F1          	pop	af
2715  0C8E  33          	inc	sp
2716  0C8F              l_enemy_evolve_00106:
2717  0C8F  C9          	ret
2718  0C90              	SECTION code_compiler
2719  0C90              ;	---------------------------------
2720  0C90              ; Function enemy_upgrade
2721  0C90              ; ---------------------------------
2722  0C90              _enemy_upgrade:
2723  0C90  CD 00 00    	call	___sdcc_enter_ix
2724  0C93  3E 00       	ld	a, +((_tile) & 0xFF)
2725  0C95  DD 86 04    	add	a,(ix+4)
2726  0C98  4F          	ld	c, a
2727  0C99  3E 00       	ld	a, +((_tile) / 256)
2728  0C9B  CE 00       	adc	a,0x00
2729  0C9D  47          	ld	b, a
2730  0C9E  DD 7E 06    	ld	a,(ix+6)
2731  0CA1  C6 06       	add	a,0x06
2732  0CA3  02          	ld	(bc), a
2733  0CA4  3E 00       	ld	a, +((_class) & 0xFF)
2734  0CA6  DD 86 04    	add	a,(ix+4)
2735  0CA9  4F          	ld	c, a
2736  0CAA  3E 00       	ld	a, +((_class) / 256)
2737  0CAC  CE 00       	adc	a,0x00
2738  0CAE  47          	ld	b, a
2739  0CAF  DD 7E 05    	ld	a,(ix+5)
2740  0CB2  02          	ld	(bc), a
2741  0CB3  DD E1       	pop	ix
2742  0CB5  C9          	ret
2743  0CB6              	SECTION code_compiler
2744  0CB6              ;	---------------------------------
2745  0CB6              ; Function enemy_walk
2746  0CB6              ; ---------------------------------
2747  0CB6              _enemy_walk:
2748  0CB6  21 00 00    	ld	hl,_s_state
2749  0CB9  CB 46       	bit	0, (hl)
2750  0CBB  20 3F       	jr	NZ,l_enemy_walk_00106
2751  0CBD  21 00 00    	ld	hl,_s_state
2752  0CC0  CB 4E       	bit	1, (hl)
2753  0CC2  20 38       	jr	NZ,l_enemy_walk_00106
2754  0CC4  2A 00 00    	ld	hl,(_sprite)
2755  0CC7  26 00       	ld	h,0x00
2756  0CC9  01 00 00    	ld	bc,_col
2757  0CCC  09          	add	hl,bc
2758  0CCD  7E          	ld	a,(hl)
2759  0CCE  57          	ld	d,a
2760  0CCF  CB 47       	bit	0,a
2761  0CD1  28 0E       	jr	Z,l_enemy_walk_00102
2762  0CD3  21 00 00    	ld	hl,_s_state
2763  0CD6  CB 66       	bit	4, (hl)
2764  0CD8  20 07       	jr	NZ,l_enemy_walk_00102
2765  0CDA  21 00 00    	ld	hl,_tmp
2766  0CDD  36 00       	ld	(hl),0x00
2767  0CDF  18 3E       	jr	l_enemy_walk_00107
2768  0CE1              l_enemy_walk_00102:
2769  0CE1  2A 00 00    	ld	hl,(_sprite)
2770  0CE4  26 00       	ld	h,0x00
2771  0CE6  01 00 00    	ld	bc,_lin
2772  0CE9  09          	add	hl,bc
2773  0CEA  7E          	ld	a,(hl)
2774  0CEB  C6 10       	add	a,0x10
2775  0CED  5F          	ld	e, a
2776  0CEE  D5          	push	de
2777  0CEF  CD 00 00    	call	_game_calc_index
2778  0CF2  F1          	pop	af
2779  0CF3  CD 00 00    	call	_game_check_maze
2780  0CF6  7D          	ld	a,l
2781  0CF7  32 00 00    	ld	(_tmp),a
2782  0CFA  18 23       	jr	l_enemy_walk_00107
2783  0CFC              l_enemy_walk_00106:
2784  0CFC  2A 00 00    	ld	hl,(_sprite)
2785  0CFF  26 00       	ld	h,0x00
2786  0D01  01 00 00    	ld	bc,_col
2787  0D04  09          	add	hl,bc
2788  0D05  56          	ld	d, (hl)
2789  0D06  2A 00 00    	ld	hl,(_sprite)
2790  0D09  26 00       	ld	h,0x00
2791  0D0B  01 00 00    	ld	bc,_lin
2792  0D0E  09          	add	hl,bc
2793  0D0F  7E          	ld	a,(hl)
2794  0D10  C6 10       	add	a,0x10
2795  0D12  5F          	ld	e, a
2796  0D13  D5          	push	de
2797  0D14  CD 00 00    	call	_game_calc_index
2798  0D17  F1          	pop	af
2799  0D18  CD 00 00    	call	_game_check_maze
2800  0D1B  7D          	ld	a,l
2801  0D1C  32 00 00    	ld	(_tmp),a
2802  0D1F              l_enemy_walk_00107:
2803  0D1F  3A 00 00    	ld	a,(_tmp)
2804  0D22  B7          	or	a, a
2805  0D23  CA 00 0E    	jp	Z, l_enemy_walk_00130
2806  0D26  21 00 00    	ld	hl,_s_state
2807  0D29  CB 46       	bit	0, (hl)
2808  0D2B  20 05       	jr	NZ,l_enemy_walk_00110
2809  0D2D  21 00 00    	ld	hl,_s_state
2810  0D30  CB CE       	set	1, (hl)
2811  0D32              l_enemy_walk_00110:
2812  0D32  2A 00 00    	ld	hl,(_sprite)
2813  0D35  26 00       	ld	h,0x00
2814  0D37  01 00 00    	ld	bc,_jump_lin
2815  0D3A  09          	add	hl,bc
2816  0D3B  7E          	ld	a,(hl)
2817  0D3C  B7          	or	a,a
2818  0D3D  20 0E       	jr	NZ,l_enemy_walk_00112
2819  0D3F  3A 00 00    	ld	a,(_sprite)
2820  0D42  5F          	ld	e,a
2821  0D43  16 00       	ld	d,0x00
2822  0D45  4D          	ld	c,l
2823  0D46  44          	ld	b,h
2824  0D47  21 00 00    	ld	hl,_lin
2825  0D4A  19          	add	hl,de
2826  0D4B  7E          	ld	a,(hl)
2827  0D4C  02          	ld	(bc), a
2828  0D4D              l_enemy_walk_00112:
2829  0D4D  21 00 00    	ld	hl,_s_state
2830  0D50  CB 4E       	bit	1, (hl)
2831  0D52  28 05       	jr	Z,l_enemy_walk_00114
2832  0D54  CD 00 00    	call	_spr_move_down
2833  0D57  18 03       	jr	l_enemy_walk_00115
2834  0D59              l_enemy_walk_00114:
2835  0D59  CD 00 00    	call	_spr_move_up
2836  0D5C              l_enemy_walk_00115:
2837  0D5C  2A 00 00    	ld	hl,(_sprite)
2838  0D5F  26 00       	ld	h,0x00
2839  0D61  01 00 00    	ld	bc,_sprite_speed_alt
2840  0D64  09          	add	hl,bc
2841  0D65  36 01       	ld	(hl),0x01
2842  0D67  21 00 00    	ld	hl,_tmp
2843  0D6A  36 01       	ld	(hl),0x01
2844  0D6C  2A 00 00    	ld	hl,(_sprite)
2845  0D6F  26 00       	ld	h,0x00
2846  0D71  01 00 00    	ld	bc,_col
2847  0D74  09          	add	hl,bc
2848  0D75  46          	ld	b, (hl)
2849  0D76  04          	inc	b
2850  0D77  3A 00 00    	ld	a,(_sprite)
2851  0D7A  5F          	ld	e,a
2852  0D7B  16 00       	ld	d,0x00
2853  0D7D  21 00 00    	ld	hl,_lin
2854  0D80  19          	add	hl,de
2855  0D81  7E          	ld	a,(hl)
2856  0D82  C6 10       	add	a,0x10
2857  0D84  4F          	ld	c,a
2858  0D85  C5          	push	bc
2859  0D86  CD 00 00    	call	_game_calc_index
2860  0D89  F1          	pop	af
2861  0D8A  CD 00 00    	call	_game_check_maze
2862  0D8D  7D          	ld	a,l
2863  0D8E  32 00 00    	ld	(_tmp0),a
2864  0D91  2A 00 00    	ld	hl,(_sprite)
2865  0D94  26 00       	ld	h,0x00
2866  0D96  01 00 00    	ld	bc,_col
2867  0D99  09          	add	hl,bc
2868  0D9A  46          	ld	b, (hl)
2869  0D9B  05          	dec	b
2870  0D9C  3A 00 00    	ld	a,(_sprite)
2871  0D9F  5F          	ld	e,a
2872  0DA0  16 00       	ld	d,0x00
2873  0DA2  21 00 00    	ld	hl,_lin
2874  0DA5  19          	add	hl,de
2875  0DA6  7E          	ld	a,(hl)
2876  0DA7  C6 10       	add	a,0x10
2877  0DA9  4F          	ld	c,a
2878  0DAA  C5          	push	bc
2879  0DAB  CD 00 00    	call	_game_calc_index
2880  0DAE  F1          	pop	af
2881  0DAF  CD 00 00    	call	_game_check_maze
2882  0DB2  7D          	ld	a,l
2883  0DB3  32 00 00    	ld	(_tmp1),a
2884  0DB6  3A 00 00    	ld	a,(_tmp0)
2885  0DB9  B7          	or	a, a
2886  0DBA  20 06       	jr	NZ,l_enemy_walk_00134
2887  0DBC  3A 00 00    	ld	a,(_tmp1)
2888  0DBF  B7          	or	a, a
2889  0DC0  28 04       	jr	Z,l_enemy_walk_00135
2890  0DC2              l_enemy_walk_00134:
2891  0DC2  0E 00       	ld	c,0x00
2892  0DC4  18 02       	jr	l_enemy_walk_00136
2893  0DC6              l_enemy_walk_00135:
2894  0DC6  0E 01       	ld	c,0x01
2895  0DC8              l_enemy_walk_00136:
2896  0DC8  21 00 00    	ld	hl,_tmp
2897  0DCB  71          	ld	(hl),c
2898  0DCC  79          	ld	a,c
2899  0DCD  B7          	or	a, a
2900  0DCE  CA 81 0E    	jp	Z, l_enemy_walk_00132
2901  0DD1  2A 00 00    	ld	hl,(_sprite)
2902  0DD4  26 00       	ld	h,0x00
2903  0DD6  5D          	ld	e,l
2904  0DD7  01 00 00    	ld	bc,_lin
2905  0DDA  09          	add	hl,bc
2906  0DDB  4E          	ld	c,(hl)
2907  0DDC  06 00       	ld	b,0x00
2908  0DDE  50          	ld	d,b
2909  0DDF  21 00 00    	ld	hl,_jump_lin
2910  0DE2  19          	add	hl,de
2911  0DE3  5E          	ld	e, (hl)
2912  0DE4  16 00       	ld	d,0x00
2913  0DE6  79          	ld	a, c
2914  0DE7  93          	sub	a, e
2915  0DE8  4F          	ld	c, a
2916  0DE9  78          	ld	a, b
2917  0DEA  9A          	sbc	a, d
2918  0DEB  47          	ld	b, a
2919  0DEC  3E 08       	ld	a,0x08
2920  0DEE  B9          	cp	a, c
2921  0DEF  3E 00       	ld	a,0x00
2922  0DF1  98          	sbc	a, b
2923  0DF2  E2 F7 0D    	jp	PO, l_enemy_walk_00207
2924  0DF5  EE 80       	xor	a,0x80
2925  0DF7              l_enemy_walk_00207:
2926  0DF7  FA 81 0E    	jp	M, l_enemy_walk_00132
2927  0DFA  CD 00 00    	call	_spr_move_horizontal
2928  0DFD  C3 81 0E    	jp	l_enemy_walk_00132
2929  0E00              l_enemy_walk_00130:
2930  0E00  21 00 00    	ld	hl,_s_state
2931  0E03  CB 4E       	bit	1, (hl)
2932  0E05  28 1B       	jr	Z,l_enemy_walk_00120
2933  0E07  21 00 00    	ld	hl,_s_state
2934  0E0A  CB 8E       	res	1, (hl)
2935  0E0C  2A 00 00    	ld	hl,(_sprite)
2936  0E0F  26 00       	ld	h,0x00
2937  0E11  01 00 00    	ld	bc,_jump_lin
2938  0E14  09          	add	hl,bc
2939  0E15  AF          	xor	a,a
2940  0E16  77          	ld	(hl),a
2941  0E17  2A 00 00    	ld	hl,(_sprite)
2942  0E1A  26 00       	ld	h,0x00
2943  0E1C  01 00 00    	ld	bc,_sprite_speed_alt
2944  0E1F  09          	add	hl,bc
2945  0E20  AF          	xor	a,a
2946  0E21  77          	ld	(hl),a
2947  0E22              l_enemy_walk_00120:
2948  0E22  2A 00 00    	ld	hl,(_sprite)
2949  0E25  26 00       	ld	h,0x00
2950  0E27  01 00 00    	ld	bc,_state_a
2951  0E2A  09          	add	hl,bc
2952  0E2B  CB 4E       	bit	1,(hl)
2953  0E2D  20 0F       	jr	NZ,l_enemy_walk_00127
2954  0E2F  3A 00 00    	ld	a,(_loop_count)
2955  0E32  E6 03       	and	a,0x03
2956  0E34  20 03       	jr	NZ,l_enemy_walk_00122
2957  0E36  CD 4E 00    	call	_enemy_collision
2958  0E39              l_enemy_walk_00122:
2959  0E39  CD 00 00    	call	_spr_move_horizontal
2960  0E3C  18 43       	jr	l_enemy_walk_00132
2961  0E3E              l_enemy_walk_00127:
2962  0E3E  01 00 00    	ld	bc,_spr_timer+0
2963  0E41  2A 00 00    	ld	hl,(_sprite)
2964  0E44  26 00       	ld	h,0x00
2965  0E46  29          	add	hl, hl
2966  0E47  09          	add	hl,bc
2967  0E48  ED 5B 00 00 	ld	de,(_curr_time)
2968  0E4C  73          	ld	(hl),e
2969  0E4D  23          	inc	hl
2970  0E4E  72          	ld	(hl),d
2971  0E4F  2A 00 00    	ld	hl,(_sprite)
2972  0E52  26 00       	ld	h,0x00
2973  0E54  01 00 00    	ld	bc,_colint
2974  0E57  09          	add	hl,bc
2975  0E58  7E          	ld	a,(hl)
2976  0E59  FE 02       	cp	a,0x02
2977  0E5B  30 04       	jr	NC,l_enemy_walk_00124
2978  0E5D  3C          	inc	a
2979  0E5E  77          	ld	(hl),a
2980  0E5F  18 20       	jr	l_enemy_walk_00132
2981  0E61              l_enemy_walk_00124:
2982  0E61  2A 00 00    	ld	hl,(_sprite)
2983  0E64  26 00       	ld	h,0x00
2984  0E66  01 00 00    	ld	bc,_state_a
2985  0E69  09          	add	hl,bc
2986  0E6A  7E          	ld	a,(hl)
2987  0E6B  E6 FD       	and	a,0xfd
2988  0E6D  77          	ld	(hl),a
2989  0E6E  2A 00 00    	ld	hl,(_sprite)
2990  0E71  26 00       	ld	h,0x00
2991  0E73  01 00 00    	ld	bc,_tile
2992  0E76  09          	add	hl,bc
2993  0E77  E5          	push	hl
2994  0E78  2A 00 00    	ld	hl,(_sprite)
2995  0E7B  CD 00 00    	call	_spr_tile
2996  0E7E  C1          	pop	bc
2997  0E7F  7D          	ld	a,l
2998  0E80  02          	ld	(bc), a
2999  0E81              l_enemy_walk_00132:
3000  0E81  C9          	ret
3001  0E82              	SECTION code_compiler
3002  0E82              ;	---------------------------------
3003  0E82              ; Function enemy_init
3004  0E82              ; ---------------------------------
3005  0E82              _enemy_init:
3006  0E82  CD 00 00    	call	___sdcc_enter_ix
3007  0E85  21 00 00    	ld	hl,_spr_count
3008  0E88  34          	inc	(hl)
3009  0E89  3E 00       	ld	a, +((_class) & 0xFF)
3010  0E8B  DD 86 04    	add	a,(ix+4)
3011  0E8E  4F          	ld	c, a
3012  0E8F  3E 00       	ld	a, +((_class) / 256)
3013  0E91  CE 00       	adc	a,0x00
3014  0E93  47          	ld	b, a
3015  0E94  DD 7E 07    	ld	a,(ix+7)
3016  0E97  02          	ld	(bc), a
3017  0E98  3E 00       	ld	a, +((_lin) & 0xFF)
3018  0E9A  DD 86 04    	add	a,(ix+4)
3019  0E9D  4F          	ld	c, a
3020  0E9E  3E 00       	ld	a, +((_lin) / 256)
3021  0EA0  CE 00       	adc	a,0x00
3022  0EA2  47          	ld	b, a
3023  0EA3  DD 7E 05    	ld	a,(ix+5)
3024  0EA6  02          	ld	(bc), a
3025  0EA7  3E 00       	ld	a, +((_col) & 0xFF)
3026  0EA9  DD 86 04    	add	a,(ix+4)
3027  0EAC  4F          	ld	c, a
3028  0EAD  3E 00       	ld	a, +((_col) / 256)
3029  0EAF  CE 00       	adc	a,0x00
3030  0EB1  47          	ld	b, a
3031  0EB2  DD 7E 06    	ld	a,(ix+6)
3032  0EB5  02          	ld	(bc), a
3033  0EB6  21 00 00    	ld	hl,_tmp
3034  0EB9  36 00       	ld	(hl),0x00
3035  0EBB  3E 00       	ld	a, +((_state) & 0xFF)
3036  0EBD  DD 86 04    	add	a,(ix+4)
3037  0EC0  4F          	ld	c, a
3038  0EC1  3E 00       	ld	a, +((_state) / 256)
3039  0EC3  CE 00       	adc	a,0x00
3040  0EC5  47          	ld	b, a
3041  0EC6  AF          	xor	a, a
3042  0EC7  02          	ld	(bc), a
3043  0EC8  3E 00       	ld	a, +((_state_a) & 0xFF)
3044  0ECA  DD 86 04    	add	a,(ix+4)
3045  0ECD  5F          	ld	e, a
3046  0ECE  3E 00       	ld	a, +((_state_a) / 256)
3047  0ED0  CE 00       	adc	a,0x00
3048  0ED2  57          	ld	d, a
3049  0ED3  AF          	xor	a, a
3050  0ED4  12          	ld	(de), a
3051  0ED5  3E 00       	ld	a, +((_jump_lin) & 0xFF)
3052  0ED7  DD 86 04    	add	a,(ix+4)
3053  0EDA  5F          	ld	e, a
3054  0EDB  3E 00       	ld	a, +((_jump_lin) / 256)
3055  0EDD  CE 00       	adc	a,0x00
3056  0EDF  57          	ld	d, a
3057  0EE0  AF          	xor	a, a
3058  0EE1  12          	ld	(de), a
3059  0EE2  DD 7E 08    	ld	a,(ix+8)
3060  0EE5  3D          	dec	a
3061  0EE6  20 04       	jr	NZ,l_enemy_init_00102
3062  0EE8  0A          	ld	a, (bc)
3063  0EE9  F6 04       	or	a,0x04
3064  0EEB  02          	ld	(bc), a
3065  0EEC              l_enemy_init_00102:
3066  0EEC  DD 7E 08    	ld	a,(ix+8)
3067  0EEF  3C          	inc	a
3068  0EF0  20 04       	jr	NZ,l_enemy_init_00104
3069  0EF2  0A          	ld	a, (bc)
3070  0EF3  F6 08       	or	a,0x08
3071  0EF5  02          	ld	(bc), a
3072  0EF6              l_enemy_init_00104:
3073  0EF6  3E 00       	ld	a, +((_colint) & 0xFF)
3074  0EF8  DD 86 04    	add	a,(ix+4)
3075  0EFB  4F          	ld	c, a
3076  0EFC  3E 00       	ld	a, +((_colint) / 256)
3077  0EFE  CE 00       	adc	a,0x00
3078  0F00  47          	ld	b, a
3079  0F01  AF          	xor	a, a
3080  0F02  02          	ld	(bc), a
3081  0F03  3E 00       	ld	a, +((_tile) & 0xFF)
3082  0F05  DD 86 04    	add	a,(ix+4)
3083  0F08  4F          	ld	c, a
3084  0F09  3E 00       	ld	a, +((_tile) / 256)
3085  0F0B  CE 00       	adc	a,0x00
3086  0F0D  47          	ld	b, a
3087  0F0E  C5          	push	bc
3088  0F0F  DD 6E 04    	ld	l,(ix+4)
3089  0F12  CD 00 00    	call	_spr_tile
3090  0F15  C1          	pop	bc
3091  0F16  7D          	ld	a,l
3092  0F17  02          	ld	(bc), a
3093  0F18  DD 6E 04    	ld	l,(ix+4)
3094  0F1B  26 00       	ld	h,0x00
3095  0F1D  29          	add	hl,hl
3096  0F1E  4D          	ld	c,l
3097  0F1F  44          	ld	b,h
3098  0F20  21 00 00    	ld	hl,_last_time
3099  0F23  09          	add	hl, bc
3100  0F24  AF          	xor	a, a
3101  0F25  77          	ld	(hl), a
3102  0F26  23          	inc	hl
3103  0F27  77          	ld	(hl), a
3104  0F28  21 00 00    	ld	hl,_spr_timer
3105  0F2B  09          	add	hl,bc
3106  0F2C  ED 5B 00 00 	ld	de,(_curr_time)
3107  0F30  73          	ld	(hl),e
3108  0F31  23          	inc	hl
3109  0F32  72          	ld	(hl),d
3110  0F33  3E 00       	ld	a, +((_sprite_speed_alt) & 0xFF)
3111  0F35  DD 86 04    	add	a,(ix+4)
3112  0F38  4F          	ld	c, a
3113  0F39  3E 00       	ld	a, +((_sprite_speed_alt) / 256)
3114  0F3B  CE 00       	adc	a,0x00
3115  0F3D  47          	ld	b, a
3116  0F3E  AF          	xor	a, a
3117  0F3F  02          	ld	(bc), a
3118  0F40  DD E1       	pop	ix
3119  0F42  C9          	ret
3120  0F43              	SECTION code_compiler
3121  0F43              ;	---------------------------------
3122  0F43              ; Function enemy_kill
3123  0F43              ; ---------------------------------
3124  0F43              _enemy_kill:
3125  0F43  CD 00 00    	call	___sdcc_enter_ix
3126  0F46  F5          	push	af
3127  0F47  F5          	push	af
3128  0F48  DD 75 FF    	ld	(ix-1),l
3129  0F4B  76          	halt
3130  0F4C  CD 00 00    	call	_sound_kill
3131  0F4F  2A 00 00    	ld	hl,(_sprite)
3132  0F52  26 00       	ld	h,0x00
3133  0F54  01 00 00    	ld	bc,_state
3134  0F57  09          	add	hl,bc
3135  0F58  5E          	ld	e, (hl)
3136  0F59  3E 00       	ld	a, +((_state) & 0xFF)
3137  0F5B  DD 86 FF    	add	a,(ix-1)
3138  0F5E  4F          	ld	c, a
3139  0F5F  3E 00       	ld	a, +((_state) / 256)
3140  0F61  CE 00       	adc	a,0x00
3141  0F63  47          	ld	b, a
3142  0F64  0A          	ld	a, (bc)
3143  0F65  CB 5B       	bit	3, e
3144  0F67  28 07       	jr	Z,l_enemy_kill_00102
3145  0F69  F6 08       	or	a,0x08
3146  0F6B  E6 FB       	and	a,0xfb
3147  0F6D  02          	ld	(bc),a
3148  0F6E  18 05       	jr	l_enemy_kill_00103
3149  0F70              l_enemy_kill_00102:
3150  0F70  F6 04       	or	a,0x04
3151  0F72  E6 F7       	and	a,0xf7
3152  0F74  02          	ld	(bc),a
3153  0F75              l_enemy_kill_00103:
3154  0F75  3E 00       	ld	a, +((_class) & 0xFF)
3155  0F77  DD 86 FF    	add	a,(ix-1)
3156  0F7A  5F          	ld	e, a
3157  0F7B  3E 00       	ld	a, +((_class) / 256)
3158  0F7D  CE 00       	adc	a,0x00
3159  0F7F  57          	ld	d, a
3160  0F80  1A          	ld	a, (de)
3161  0F81  D6 09       	sub	a,0x09
3162  0F83  20 03       	jr	NZ,l_enemy_kill_00105
3163  0F85  3E 01       	ld	a,0x01
3164  0F87  12          	ld	(de), a
3165  0F88              l_enemy_kill_00105:
3166  0F88  0A          	ld	a, (bc)
3167  0F89  F6 20       	or	a,0x20
3168  0F8B  02          	ld	(bc), a
3169  0F8C  1A          	ld	a, (de)
3170  0F8D  DD 77 FE    	ld	(ix-2),a
3171  0F90  0A          	ld	a, (bc)
3172  0F91  6F          	ld	l, a
3173  0F92  3E 06       	ld	a,0x06
3174  0F94  DD 96 FE    	sub	a,(ix-2)
3175  0F97  38 06       	jr	C,l_enemy_kill_00107
3176  0F99  7D          	ld	a, l
3177  0F9A  F6 01       	or	a,0x01
3178  0F9C  02          	ld	(bc), a
3179  0F9D  18 04       	jr	l_enemy_kill_00108
3180  0F9F              l_enemy_kill_00107:
3181  0F9F  7D          	ld	a, l
3182  0FA0  E6 FE       	and	a,0xfe
3183  0FA2  02          	ld	(bc), a
3184  0FA3              l_enemy_kill_00108:
3185  0FA3  01 00 00    	ld	bc,_sprite_speed_alt+0
3186  0FA6  DD 6E FF    	ld	l,(ix-1)
3187  0FA9  26 00       	ld	h,0x00
3188  0FAB  09          	add	hl, bc
3189  0FAC  36 08       	ld	(hl),0x08
3190  0FAE  21 00 00    	ld	hl,_hit_count
3191  0FB1  46          	ld	b,(hl)
3192  0FB2  04          	inc	b
3193  0FB3  70          	ld	(hl),b
3194  0FB4  04          	inc	b
3195  0FB5  21 50 00    	ld	hl,0x0050
3196  0FB8  18 01       	jr	l_enemy_kill_00180
3197  0FBA              l_enemy_kill_00179:
3198  0FBA  29          	add	hl, hl
3199  0FBB              l_enemy_kill_00180:
3200  0FBB  10 FD       	djnz	l_enemy_kill_00179
3201  0FBD  D5          	push	de
3202  0FBE  CD 00 00    	call	_player_score_add
3203  0FC1  D1          	pop	de
3204  0FC2  01 00 00    	ld	bc,_spr_timer+0
3205  0FC5  DD 6E FF    	ld	l,(ix-1)
3206  0FC8  26 00       	ld	h,0x00
3207  0FCA  29          	add	hl, hl
3208  0FCB  09          	add	hl,bc
3209  0FCC  E3          	ex	(sp), hl
3210  0FCD  E1          	pop	hl
3211  0FCE  ED 4B 00 00 	ld	bc,(_curr_time)
3212  0FD2  E5          	push	hl
3213  0FD3  71          	ld	(hl), c
3214  0FD4  23          	inc	hl
3215  0FD5  70          	ld	(hl), b
3216  0FD6  3E 00       	ld	a, +((_jump_lin) & 0xFF)
3217  0FD8  DD 86 FF    	add	a,(ix-1)
3218  0FDB  4F          	ld	c, a
3219  0FDC  3E 00       	ld	a, +((_jump_lin) / 256)
3220  0FDE  CE 00       	adc	a,0x00
3221  0FE0  47          	ld	b, a
3222  0FE1  3E 00       	ld	a, +((_lin) & 0xFF)
3223  0FE3  DD 86 FF    	add	a,(ix-1)
3224  0FE6  6F          	ld	l, a
3225  0FE7  3E 00       	ld	a, +((_lin) / 256)
3226  0FE9  CE 00       	adc	a,0x00
3227  0FEB  67          	ld	h, a
3228  0FEC  7E          	ld	a, (hl)
3229  0FED  02          	ld	(bc), a
3230  0FEE  1A          	ld	a, (de)
3231  0FEF  4F          	ld	c, a
3232  0FF0  3E 06       	ld	a,0x06
3233  0FF2  91          	sub	a, c
3234  0FF3  38 67       	jr	C,l_enemy_kill_00117
3235  0FF5  3A 00 00    	ld	a,(_game_type)
3236  0FF8  D6 02       	sub	a,0x02
3237  0FFA  28 60       	jr	Z,l_enemy_kill_00117
3238  0FFC  21 00 00    	ld	hl,_phase_left
3239  0FFF  7E          	ld	a,(hl)
3240  1000  3D          	dec	a
3241  1001  77          	ld	(hl),a
3242  1002  3D          	dec	a
3243  1003  20 53       	jr	NZ,l_enemy_kill_00115
3244  1005  21 00 00    	ld	hl,_phase_angry
3245  1008  36 01       	ld	(hl),0x01
3246  100A  21 00 00    	ld	hl,_tmp0
3247  100D  36 00       	ld	(hl),0x00
3248  100F              l_enemy_kill_00124:
3249  100F  2A 00 00    	ld	hl,(_tmp0)
3250  1012  26 00       	ld	h,0x00
3251  1014  01 00 00    	ld	bc,_class
3252  1017  09          	add	hl,bc
3253  1018  7E          	ld	a,(hl)
3254  1019  4F          	ld	c,a
3255  101A  B7          	or	a,a
3256  101B  28 31       	jr	Z,l_enemy_kill_00125
3257  101D  3E 09       	ld	a,0x09
3258  101F  91          	sub	a,c
3259  1020  38 2C       	jr	C,l_enemy_kill_00125
3260  1022  2A 00 00    	ld	hl,(_tmp0)
3261  1025  26 00       	ld	h,0x00
3262  1027  01 00 00    	ld	bc,_state
3263  102A  09          	add	hl,bc
3264  102B  CB 6E       	bit	5,(hl)
3265  102D  20 1F       	jr	NZ,l_enemy_kill_00125
3266  102F  2A 00 00    	ld	hl,(_tmp0)
3267  1032  CD 43 0C    	call	_enemy_evolve
3268  1035  2A 00 00    	ld	hl,(_tmp0)
3269  1038  CD 43 0C    	call	_enemy_evolve
3270  103B  2A 00 00    	ld	hl,(_tmp0)
3271  103E  26 00       	ld	h,0x00
3272  1040  01 00 00    	ld	bc,_tile
3273  1043  09          	add	hl,bc
3274  1044  E5          	push	hl
3275  1045  2A 00 00    	ld	hl,(_tmp0)
3276  1048  CD 00 00    	call	_spr_tile
3277  104B  C1          	pop	bc
3278  104C  7D          	ld	a,l
3279  104D  02          	ld	(bc), a
3280  104E              l_enemy_kill_00125:
3281  104E  21 00 00    	ld	hl,_tmp0
3282  1051  7E          	ld	a,(hl)
3283  1052  3C          	inc	a
3284  1053  77          	ld	(hl),a
3285  1054  D6 06       	sub	a,0x06
3286  1056  38 B7       	jr	C,l_enemy_kill_00124
3287  1058              l_enemy_kill_00115:
3288  1058  21 00 00    	ld	hl,_phase_coins
3289  105B  34          	inc	(hl)
3290  105C              l_enemy_kill_00117:
3291  105C  3A 00 00    	ld	a,(_phase_left)
3292  105F  B7          	or	a, a
3293  1060  28 08       	jr	Z,l_enemy_kill_00122
3294  1062  21 00 00    	ld	hl,_ay_effect_11
3295  1065  CD 00 00    	call	_ay_fx_play
3296  1068  18 0F       	jr	l_enemy_kill_00126
3297  106A              l_enemy_kill_00122:
3298  106A  CD 00 00    	call	_ay_reset
3299  106D  3A 00 00    	ld	a,(_game_bonus)
3300  1070  B7          	or	a, a
3301  1071  20 06       	jr	NZ,l_enemy_kill_00126
3302  1073  21 00 00    	ld	hl,_ay_effect_17
3303  1076  CD 00 00    	call	_ay_fx_play
3304  1079              l_enemy_kill_00126:
3305  1079  DD F9       	ld	sp, ix
3306  107B  DD E1       	pop	ix
3307  107D  C9          	ret
3308  107E              	SECTION IGNORE
3309  0000              
