1     0000              ;--------------------------------------------------------
2     0000              ; File Created by SDCC : free open source ANSI-C Compiler
3     0000              ; Version 3.6.2 #9712 (MSVC)
4     0000              ;--------------------------------------------------------
5     0000              ; Processed by Z88DK
6     0000              ;--------------------------------------------------------
7     0000              
8     0000              	EXTERN __divschar
9     0000              	EXTERN __divschar_callee
10    0000              	EXTERN __divsint
11    0000              	EXTERN __divsint_callee
12    0000              	EXTERN __divslong
13    0000              	EXTERN __divslong_callee
14    0000              	EXTERN __divslonglong
15    0000              	EXTERN __divslonglong_callee
16    0000              	EXTERN __divsuchar
17    0000              	EXTERN __divsuchar_callee
18    0000              	EXTERN __divuchar
19    0000              	EXTERN __divuchar_callee
20    0000              	EXTERN __divuint
21    0000              	EXTERN __divuint_callee
22    0000              	EXTERN __divulong
23    0000              	EXTERN __divulong_callee
24    0000              	EXTERN __divulonglong
25    0000              	EXTERN __divulonglong_callee
26    0000              	EXTERN __divuschar
27    0000              	EXTERN __divuschar_callee
28    0000              	EXTERN __modschar
29    0000              	EXTERN __modschar_callee
30    0000              	EXTERN __modsint
31    0000              	EXTERN __modsint_callee
32    0000              	EXTERN __modslong
33    0000              	EXTERN __modslong_callee
34    0000              	EXTERN __modslonglong
35    0000              	EXTERN __modslonglong_callee
36    0000              	EXTERN __modsuchar
37    0000              	EXTERN __modsuchar_callee
38    0000              	EXTERN __moduchar
39    0000              	EXTERN __moduchar_callee
40    0000              	EXTERN __moduint
41    0000              	EXTERN __moduint_callee
42    0000              	EXTERN __modulong
43    0000              	EXTERN __modulong_callee
44    0000              	EXTERN __modulonglong
45    0000              	EXTERN __modulonglong_callee
46    0000              	EXTERN __moduschar
47    0000              	EXTERN __moduschar_callee
48    0000              	EXTERN __mulint
49    0000              	EXTERN __mulint_callee
50    0000              	EXTERN __mullong
51    0000              	EXTERN __mullong_callee
52    0000              	EXTERN __mullonglong
53    0000              	EXTERN __mullonglong_callee
54    0000              	EXTERN __mulschar
55    0000              	EXTERN __mulschar_callee
56    0000              	EXTERN __mulsuchar
57    0000              	EXTERN __mulsuchar_callee
58    0000              	EXTERN __muluschar
59    0000              	EXTERN __muluschar_callee
60    0000              	EXTERN __rlslonglong
61    0000              	EXTERN __rlslonglong_callee
62    0000              	EXTERN __rlulonglong
63    0000              	EXTERN __rlulonglong_callee
64    0000              	EXTERN __rrslonglong
65    0000              	EXTERN __rrslonglong_callee
66    0000              	EXTERN __rrulonglong
67    0000              	EXTERN __rrulonglong_callee
68    0000              	EXTERN ___sdcc_call_hl
69    0000              	EXTERN ___sdcc_call_iy
70    0000              	EXTERN ___sdcc_enter_ix
71    0000              	EXTERN _banked_call
72    0000              	EXTERN _banked_ret
73    0000              	EXTERN ___fs2schar
74    0000              	EXTERN ___fs2schar_callee
75    0000              	EXTERN ___fs2sint
76    0000              	EXTERN ___fs2sint_callee
77    0000              	EXTERN ___fs2slong
78    0000              	EXTERN ___fs2slong_callee
79    0000              	EXTERN ___fs2slonglong
80    0000              	EXTERN ___fs2slonglong_callee
81    0000              	EXTERN ___fs2uchar
82    0000              	EXTERN ___fs2uchar_callee
83    0000              	EXTERN ___fs2uint
84    0000              	EXTERN ___fs2uint_callee
85    0000              	EXTERN ___fs2ulong
86    0000              	EXTERN ___fs2ulong_callee
87    0000              	EXTERN ___fs2ulonglong
88    0000              	EXTERN ___fs2ulonglong_callee
89    0000              	EXTERN ___fsadd
90    0000              	EXTERN ___fsadd_callee
91    0000              	EXTERN ___fsdiv
92    0000              	EXTERN ___fsdiv_callee
93    0000              	EXTERN ___fseq
94    0000              	EXTERN ___fseq_callee
95    0000              	EXTERN ___fsgt
96    0000              	EXTERN ___fsgt_callee
97    0000              	EXTERN ___fslt
98    0000              	EXTERN ___fslt_callee
99    0000              	EXTERN ___fsmul
100   0000              	EXTERN ___fsmul_callee
101   0000              	EXTERN ___fsneq
102   0000              	EXTERN ___fsneq_callee
103   0000              	EXTERN ___fssub
104   0000              	EXTERN ___fssub_callee
105   0000              	EXTERN ___schar2fs
106   0000              	EXTERN ___schar2fs_callee
107   0000              	EXTERN ___sint2fs
108   0000              	EXTERN ___sint2fs_callee
109   0000              	EXTERN ___slong2fs
110   0000              	EXTERN ___slong2fs_callee
111   0000              	EXTERN ___slonglong2fs
112   0000              	EXTERN ___slonglong2fs_callee
113   0000              	EXTERN ___uchar2fs
114   0000              	EXTERN ___uchar2fs_callee
115   0000              	EXTERN ___uint2fs
116   0000              	EXTERN ___uint2fs_callee
117   0000              	EXTERN ___ulong2fs
118   0000              	EXTERN ___ulong2fs_callee
119   0000              	EXTERN ___ulonglong2fs
120   0000              	EXTERN ___ulonglong2fs_callee
121   0000              	EXTERN ____sdcc_2_copy_src_mhl_dst_deix
122   0000              	EXTERN ____sdcc_2_copy_src_mhl_dst_bcix
123   0000              	EXTERN ____sdcc_4_copy_src_mhl_dst_deix
124   0000              	EXTERN ____sdcc_4_copy_src_mhl_dst_bcix
125   0000              	EXTERN ____sdcc_4_copy_src_mhl_dst_mbc
126   0000              	EXTERN ____sdcc_4_ldi_nosave_bc
127   0000              	EXTERN ____sdcc_4_ldi_save_bc
128   0000              	EXTERN ____sdcc_4_push_hlix
129   0000              	EXTERN ____sdcc_4_push_mhl
130   0000              	EXTERN ____sdcc_lib_setmem_hl
131   0000              	EXTERN ____sdcc_ll_add_de_bc_hl
132   0000              	EXTERN ____sdcc_ll_add_de_bc_hlix
133   0000              	EXTERN ____sdcc_ll_add_de_hlix_bc
134   0000              	EXTERN ____sdcc_ll_add_de_hlix_bcix
135   0000              	EXTERN ____sdcc_ll_add_deix_bc_hl
136   0000              	EXTERN ____sdcc_ll_add_deix_hlix
137   0000              	EXTERN ____sdcc_ll_add_hlix_bc_deix
138   0000              	EXTERN ____sdcc_ll_add_hlix_deix_bc
139   0000              	EXTERN ____sdcc_ll_add_hlix_deix_bcix
140   0000              	EXTERN ____sdcc_ll_asr_hlix_a
141   0000              	EXTERN ____sdcc_ll_asr_mbc_a
142   0000              	EXTERN ____sdcc_ll_copy_src_de_dst_hlix
143   0000              	EXTERN ____sdcc_ll_copy_src_de_dst_hlsp
144   0000              	EXTERN ____sdcc_ll_copy_src_deix_dst_hl
145   0000              	EXTERN ____sdcc_ll_copy_src_deix_dst_hlix
146   0000              	EXTERN ____sdcc_ll_copy_src_deixm_dst_hlsp
147   0000              	EXTERN ____sdcc_ll_copy_src_desp_dst_hlsp
148   0000              	EXTERN ____sdcc_ll_copy_src_hl_dst_de
149   0000              	EXTERN ____sdcc_ll_copy_src_hlsp_dst_de
150   0000              	EXTERN ____sdcc_ll_copy_src_hlsp_dst_deixm
151   0000              	EXTERN ____sdcc_ll_lsl_hlix_a
152   0000              	EXTERN ____sdcc_ll_lsl_mbc_a
153   0000              	EXTERN ____sdcc_ll_lsr_hlix_a
154   0000              	EXTERN ____sdcc_ll_lsr_mbc_a
155   0000              	EXTERN ____sdcc_ll_push_hlix
156   0000              	EXTERN ____sdcc_ll_push_mhl
157   0000              	EXTERN ____sdcc_ll_sub_de_bc_hl
158   0000              	EXTERN ____sdcc_ll_sub_de_bc_hlix
159   0000              	EXTERN ____sdcc_ll_sub_de_hlix_bc
160   0000              	EXTERN ____sdcc_ll_sub_de_hlix_bcix
161   0000              	EXTERN ____sdcc_ll_sub_deix_bc_hl
162   0000              	EXTERN ____sdcc_ll_sub_deix_hlix
163   0000              	EXTERN ____sdcc_ll_sub_hlix_bc_deix
164   0000              	EXTERN ____sdcc_ll_sub_hlix_deix_bc
165   0000              	EXTERN ____sdcc_ll_sub_hlix_deix_bcix
166   0000              	EXTERN ____sdcc_load_debc_deix
167   0000              	EXTERN ____sdcc_load_dehl_deix
168   0000              	EXTERN ____sdcc_load_debc_mhl
169   0000              	EXTERN ____sdcc_load_hlde_mhl
170   0000              	EXTERN ____sdcc_store_dehl_bcix
171   0000              	EXTERN ____sdcc_store_debc_hlix
172   0000              	EXTERN ____sdcc_store_debc_mhl
173   0000              	EXTERN ____sdcc_z80_pop_ei
174   0000              	EXTERN ____sdcc_z80_pop_ei_jp
175   0000              	EXTERN ____sdcc_z80_push_di
176   0000              
177   0000              ;--------------------------------------------------------
178   0000              ; Public variables in this module
179   0000              ;--------------------------------------------------------
180   0000              	GLOBAL _spr_chktime
181   0000              	GLOBAL _spr_move_up
182   0000              	GLOBAL _spr_move_down
183   0000              	GLOBAL _spr_move_horizontal
184   0000              	GLOBAL _spr_move_right
185   0000              	GLOBAL _spr_move_left
186   0000              	GLOBAL _spr_redraw
187   0000              	GLOBAL _spr_killed
188   0000              	GLOBAL _spr_anim_fall
189   0000              	GLOBAL _spr_anim_kill
190   0000              	GLOBAL _spr_check_over
191   0000              	GLOBAL _spr_destroy
192   0000              	GLOBAL _spr_set_fall
193   0000              	GLOBAL _spr_tile
194   0000              	GLOBAL _spr_tile_dir
195   0000              	GLOBAL _spr_draw_back
196   0000              	GLOBAL _spr_draw_clear
197   0000              	GLOBAL _spr_draw_pow
198   0000              	GLOBAL _spr_back_clr
199   0000              	GLOBAL _spr_back_fix
200   0000              	GLOBAL _spr_back_fix1
201   0000              	GLOBAL _spr_back_fix2
202   0000              	GLOBAL _spr_back_fix3
203   0000              	GLOBAL _spr_back_fix4
204   0000              	GLOBAL _spr_brick_anim
205   0000              	GLOBAL _spr_cortina_brick
206   0000              	GLOBAL _spr_cortina_pipes
207   0000              	GLOBAL _spr_water_splash_draw
208   0000              	GLOBAL _spr_water_splash_clear
209   0000              ;--------------------------------------------------------
210   0000              ; Externals used
211   0000              ;--------------------------------------------------------
212   0000              	GLOBAL _debug3
213   0000              	GLOBAL _debug2
214   0000              	GLOBAL _debug
215   0000              	GLOBAL _zx_print_str
216   0000              	GLOBAL _zx_print_int
217   0000              	GLOBAL _zx_print_chr
218   0000              	GLOBAL _zx_print_bonus_time
219   0000              	GLOBAL _zx_isr
220   0000              	GLOBAL _z80_otdr_callee
221   0000              	GLOBAL _z80_otdr
222   0000              	GLOBAL _z80_otir_callee
223   0000              	GLOBAL _z80_otir
224   0000              	GLOBAL _z80_outp_callee
225   0000              	GLOBAL _z80_outp
226   0000              	GLOBAL _z80_indr_callee
227   0000              	GLOBAL _z80_indr
228   0000              	GLOBAL _z80_inir_callee
229   0000              	GLOBAL _z80_inir
230   0000              	GLOBAL _z80_inp_fastcall
231   0000              	GLOBAL _z80_inp
232   0000              	GLOBAL _z80_set_int_state_fastcall
233   0000              	GLOBAL _z80_set_int_state
234   0000              	GLOBAL _z80_get_int_state
235   0000              	GLOBAL _z80_delay_tstate_fastcall
236   0000              	GLOBAL _z80_delay_tstate
237   0000              	GLOBAL _z80_delay_ms_fastcall
238   0000              	GLOBAL _z80_delay_ms
239   0000              	GLOBAL _im2_remove_generic_callback_callee
240   0000              	GLOBAL _im2_remove_generic_callback
241   0000              	GLOBAL _im2_prepend_generic_callback_callee
242   0000              	GLOBAL _im2_prepend_generic_callback
243   0000              	GLOBAL _im2_append_generic_callback_callee
244   0000              	GLOBAL _im2_append_generic_callback
245   0000              	GLOBAL _im2_create_generic_isr_8080_callee
246   0000              	GLOBAL _im2_create_generic_isr_8080
247   0000              	GLOBAL _im2_create_generic_isr_callee
248   0000              	GLOBAL _im2_create_generic_isr
249   0000              	GLOBAL _im2_install_isr_callee
250   0000              	GLOBAL _im2_install_isr
251   0000              	GLOBAL _im2_init_fastcall
252   0000              	GLOBAL _im2_init
253   0000              	GLOBAL _zx_pattern_fill_callee
254   0000              	GLOBAL _zx_pattern_fill
255   0000              	GLOBAL _zx_saddrpup_fastcall
256   0000              	GLOBAL _zx_saddrpup
257   0000              	GLOBAL _zx_saddrpright_callee
258   0000              	GLOBAL _zx_saddrpright
259   0000              	GLOBAL _zx_saddrpleft_callee
260   0000              	GLOBAL _zx_saddrpleft
261   0000              	GLOBAL _zx_saddrpdown_fastcall
262   0000              	GLOBAL _zx_saddrpdown
263   0000              	GLOBAL _zx_saddrcup_fastcall
264   0000              	GLOBAL _zx_saddrcup
265   0000              	GLOBAL _zx_saddrcright_fastcall
266   0000              	GLOBAL _zx_saddrcright
267   0000              	GLOBAL _zx_saddrcleft_fastcall
268   0000              	GLOBAL _zx_saddrcleft
269   0000              	GLOBAL _zx_saddrcdown_fastcall
270   0000              	GLOBAL _zx_saddrcdown
271   0000              	GLOBAL _zx_saddr2py_fastcall
272   0000              	GLOBAL _zx_saddr2py
273   0000              	GLOBAL _zx_saddr2px_fastcall
274   0000              	GLOBAL _zx_saddr2px
275   0000              	GLOBAL _zx_saddr2cy_fastcall
276   0000              	GLOBAL _zx_saddr2cy
277   0000              	GLOBAL _zx_saddr2cx_fastcall
278   0000              	GLOBAL _zx_saddr2cx
279   0000              	GLOBAL _zx_saddr2aaddr_fastcall
280   0000              	GLOBAL _zx_saddr2aaddr
281   0000              	GLOBAL _zx_py2saddr_fastcall
282   0000              	GLOBAL _zx_py2saddr
283   0000              	GLOBAL _zx_py2aaddr_fastcall
284   0000              	GLOBAL _zx_py2aaddr
285   0000              	GLOBAL _zx_pxy2saddr_callee
286   0000              	GLOBAL _zx_pxy2saddr
287   0000              	GLOBAL _zx_pxy2aaddr_callee
288   0000              	GLOBAL _zx_pxy2aaddr
289   0000              	GLOBAL _zx_px2bitmask_fastcall
290   0000              	GLOBAL _zx_px2bitmask
291   0000              	GLOBAL _zx_cyx2saddr_callee
292   0000              	GLOBAL _zx_cyx2saddr
293   0000              	GLOBAL _zx_cyx2aaddr_callee
294   0000              	GLOBAL _zx_cyx2aaddr
295   0000              	GLOBAL _zx_cy2saddr_fastcall
296   0000              	GLOBAL _zx_cy2saddr
297   0000              	GLOBAL _zx_cy2aaddr_fastcall
298   0000              	GLOBAL _zx_cy2aaddr
299   0000              	GLOBAL _zx_bitmask2px_fastcall
300   0000              	GLOBAL _zx_bitmask2px
301   0000              	GLOBAL _zx_aaddrcup_fastcall
302   0000              	GLOBAL _zx_aaddrcup
303   0000              	GLOBAL _zx_aaddrcright_fastcall
304   0000              	GLOBAL _zx_aaddrcright
305   0000              	GLOBAL _zx_aaddrcleft_fastcall
306   0000              	GLOBAL _zx_aaddrcleft
307   0000              	GLOBAL _zx_aaddrcdown_fastcall
308   0000              	GLOBAL _zx_aaddrcdown
309   0000              	GLOBAL _zx_aaddr2saddr_fastcall
310   0000              	GLOBAL _zx_aaddr2saddr
311   0000              	GLOBAL _zx_aaddr2py_fastcall
312   0000              	GLOBAL _zx_aaddr2py
313   0000              	GLOBAL _zx_aaddr2px_fastcall
314   0000              	GLOBAL _zx_aaddr2px
315   0000              	GLOBAL _zx_aaddr2cy_fastcall
316   0000              	GLOBAL _zx_aaddr2cy
317   0000              	GLOBAL _zx_aaddr2cx_fastcall
318   0000              	GLOBAL _zx_aaddr2cx
319   0000              	GLOBAL _zx_scroll_wc_up_callee
320   0000              	GLOBAL _zx_scroll_wc_up
321   0000              	GLOBAL _zx_scroll_up_callee
322   0000              	GLOBAL _zx_scroll_up
323   0000              	GLOBAL _zx_cls_wc_callee
324   0000              	GLOBAL _zx_cls_wc
325   0000              	GLOBAL _zx_cls_fastcall
326   0000              	GLOBAL _zx_cls
327   0000              	GLOBAL _zx_border_fastcall
328   0000              	GLOBAL _zx_border
329   0000              	GLOBAL _player_move_horizontal
330   0000              	GLOBAL _player_push_check
331   0000              	GLOBAL _player_push
332   0000              	GLOBAL _player_hit_brick_clear
333   0000              	GLOBAL _player_lost_life
334   0000              	GLOBAL _player_score_add
335   0000              	GLOBAL _player_coin
336   0000              	GLOBAL _player_hit_pow
337   0000              	GLOBAL _player_hit_brick
338   0000              	GLOBAL _player_move_input
339   0000              	GLOBAL _player_turn
340   0000              	GLOBAL _player_move
341   0000              	GLOBAL _player_restart
342   0000              	GLOBAL _player_kill
343   0000              	GLOBAL _player_check_input
344   0000              	GLOBAL _player_collition_check
345   0000              	GLOBAL _player_collition
346   0000              	GLOBAL _player_calc_slide
347   0000              	GLOBAL _player_init
348   0000              	GLOBAL _game_joystick_set_menu
349   0000              	GLOBAL _game_joystick_set
350   0000              	GLOBAL _game_joystick_change
351   0000              	GLOBAL _game_hall_print_p
352   0000              	GLOBAL _game_hall_edit_p
353   0000              	GLOBAL _game_hall_check
354   0000              	GLOBAL _game_hall_enter_phs
355   0000              	GLOBAL _game_print_header
356   0000              	GLOBAL _game_end
357   0000              	GLOBAL _game_hall_enter
358   0000              	GLOBAL _game_hall_of_fame
359   0000              	GLOBAL _game_score_osd
360   0000              	GLOBAL _game_phase_print_score_back
361   0000              	GLOBAL _game_bonus_clock
362   0000              	GLOBAL _game_bonus_summary_player
363   0000              	GLOBAL _game_bonus_summary
364   0000              	GLOBAL _game_check_time
365   0000              	GLOBAL _game_menu_config
366   0000              	GLOBAL _game_menu
367   0000              	GLOBAL _game_rotate_attrib
368   0000              	GLOBAL _game_colour_message
369   0000              	GLOBAL _game_paint_attrib_lin_h
370   0000              	GLOBAL _game_paint_attrib_lin
371   0000              	GLOBAL _game_paint_attrib
372   0000              	GLOBAL _game_menu_paint
373   0000              	GLOBAL _game_menu_top_paint
374   0000              	GLOBAL _game_menu_handle
375   0000              	GLOBAL _game_menu_e
376   0000              	GLOBAL _game_menu_back
377   0000              	GLOBAL _game_print_score
378   0000              	GLOBAL _game_unfreeze_all
379   0000              	GLOBAL _game_freeze_all
380   0000              	GLOBAL _game_freeze
381   0000              	GLOBAL _game_enemy_add_get_index
382   0000              	GLOBAL _game_enemy_add1
383   0000              	GLOBAL _game_enemy_quota
384   0000              	GLOBAL _game_enemy_rnd
385   0000              	GLOBAL _game_enemy_add
386   0000              	GLOBAL _game_check_maze
387   0000              	GLOBAL _game_kill_all_sprites
388   0000              	GLOBAL _game_loop
389   0000              	GLOBAL _player_set2
390   0000              	GLOBAL _player_set1
391   0000              	GLOBAL _game_phase_print
392   0000              	GLOBAL _game_phase_init
393   0000              	GLOBAL _game_phase_calc
394   0000              	GLOBAL _game_start_timer
395   0000              	GLOBAL _game_tick
396   0000              	GLOBAL _game_print_lives
397   0000              	GLOBAL _game_print_footer
398   0000              	GLOBAL _game_calc_index
399   0000              	GLOBAL _game_fill_row
400   0000              	GLOBAL _test_func
401   0000              	GLOBAL _in_mouse_kempston_wheel_delta
402   0000              	GLOBAL _in_mouse_kempston_wheel
403   0000              	GLOBAL _in_mouse_kempston_callee
404   0000              	GLOBAL _in_mouse_kempston
405   0000              	GLOBAL _in_mouse_kempston_setpos_callee
406   0000              	GLOBAL _in_mouse_kempston_setpos
407   0000              	GLOBAL _in_mouse_kempston_reset
408   0000              	GLOBAL _in_mouse_kempston_init
409   0000              	GLOBAL _in_mouse_amx_wheel_delta
410   0000              	GLOBAL _in_mouse_amx_wheel
411   0000              	GLOBAL _in_mouse_amx_callee
412   0000              	GLOBAL _in_mouse_amx
413   0000              	GLOBAL _in_mouse_amx_setpos_callee
414   0000              	GLOBAL _in_mouse_amx_setpos
415   0000              	GLOBAL _in_mouse_amx_reset
416   0000              	GLOBAL _in_mouse_amx_init_callee
417   0000              	GLOBAL _in_mouse_amx_init
418   0000              	GLOBAL _in_stick_sinclair2
419   0000              	GLOBAL _in_stick_sinclair1
420   0000              	GLOBAL _in_stick_kempston
421   0000              	GLOBAL _in_stick_fuller
422   0000              	GLOBAL _in_stick_cursor
423   0000              	GLOBAL _in_stick_keyboard_fastcall
424   0000              	GLOBAL _in_stick_keyboard
425   0000              	GLOBAL _in_wait_nokey
426   0000              	GLOBAL _in_wait_key
427   0000              	GLOBAL _in_test_key
428   0000              	GLOBAL _in_pause_fastcall
429   0000              	GLOBAL _in_pause
430   0000              	GLOBAL _in_key_scancode_fastcall
431   0000              	GLOBAL _in_key_scancode
432   0000              	GLOBAL _in_key_pressed_fastcall
433   0000              	GLOBAL _in_key_pressed
434   0000              	GLOBAL _in_inkey
435   0000              	GLOBAL _NIRVANAP_drawTW_raw_callee
436   0000              	GLOBAL _NIRVANAP_drawTW_raw
437   0000              	GLOBAL _NIRVANAP_drawTW_callee
438   0000              	GLOBAL _NIRVANAP_drawTW
439   0000              	GLOBAL _NIRVANAP_drawW_raw_callee
440   0000              	GLOBAL _NIRVANAP_drawW_raw
441   0000              	GLOBAL _NIRVANAP_drawW_callee
442   0000              	GLOBAL _NIRVANAP_drawW
443   0000              	GLOBAL _NIRVANAP_spriteT_callee
444   0000              	GLOBAL _NIRVANAP_spriteT
445   0000              	GLOBAL _NIRVANAP_fillC_callee
446   0000              	GLOBAL _NIRVANAP_fillC
447   0000              	GLOBAL _NIRVANAP_readC_callee
448   0000              	GLOBAL _NIRVANAP_readC
449   0000              	GLOBAL _NIRVANAP_paintC_callee
450   0000              	GLOBAL _NIRVANAP_paintC
451   0000              	GLOBAL _NIRVANAP_printC_callee
452   0000              	GLOBAL _NIRVANAP_printC
453   0000              	GLOBAL _NIRVANAP_fillT_raw_callee
454   0000              	GLOBAL _NIRVANAP_fillT_raw
455   0000              	GLOBAL _NIRVANAP_fillT_callee
456   0000              	GLOBAL _NIRVANAP_fillT
457   0000              	GLOBAL _NIRVANAP_drawT_raw_callee
458   0000              	GLOBAL _NIRVANAP_drawT_raw
459   0000              	GLOBAL _NIRVANAP_drawT_callee
460   0000              	GLOBAL _NIRVANAP_drawT
461   0000              	GLOBAL _NIRVANAP_stop
462   0000              	GLOBAL _NIRVANAP_start
463   0000              	GLOBAL _intrinsic_swap_word_32_fastcall
464   0000              	GLOBAL _intrinsic_swap_word_32
465   0000              	GLOBAL _intrinsic_swap_endian_32_fastcall
466   0000              	GLOBAL _intrinsic_swap_endian_32
467   0000              	GLOBAL _intrinsic_swap_endian_16_fastcall
468   0000              	GLOBAL _intrinsic_swap_endian_16
469   0000              	GLOBAL _intrinsic_return_de
470   0000              	GLOBAL _intrinsic_return_bc
471   0000              	GLOBAL _intrinsic_exx
472   0000              	GLOBAL _intrinsic_ex_de_hl
473   0000              	GLOBAL _intrinsic_pop_iy
474   0000              	GLOBAL _intrinsic_pop_ix
475   0000              	GLOBAL _intrinsic_pop_hl
476   0000              	GLOBAL _intrinsic_pop_de
477   0000              	GLOBAL _intrinsic_pop_bc
478   0000              	GLOBAL _intrinsic_pop_af
479   0000              	GLOBAL _intrinsic_push_iy
480   0000              	GLOBAL _intrinsic_push_ix
481   0000              	GLOBAL _intrinsic_push_hl
482   0000              	GLOBAL _intrinsic_push_de
483   0000              	GLOBAL _intrinsic_push_bc
484   0000              	GLOBAL _intrinsic_push_af
485   0000              	GLOBAL _intrinsic_nop
486   0000              	GLOBAL _intrinsic_im_2
487   0000              	GLOBAL _intrinsic_im_1
488   0000              	GLOBAL _intrinsic_im_0
489   0000              	GLOBAL _intrinsic_retn
490   0000              	GLOBAL _intrinsic_reti
491   0000              	GLOBAL _intrinsic_halt
492   0000              	GLOBAL _intrinsic_ei
493   0000              	GLOBAL _intrinsic_di
494   0000              	GLOBAL _intrinsic_stub
495   0000              	GLOBAL _joynames
496   0000              	GLOBAL _initials
497   0000              	GLOBAL _hof
498   0000              	GLOBAL _score_osd_tile
499   0000              	GLOBAL _score_osd_time
500   0000              	GLOBAL _score_osd_col
501   0000              	GLOBAL _score_osd_lin
502   0000              	GLOBAL _phase_bonus_total
503   0000              	GLOBAL _phase_angry
504   0000              	GLOBAL _phase_curr
505   0000              	GLOBAL _phase_end
506   0000              	GLOBAL _phase_coins
507   0000              	GLOBAL _phase_pop
508   0000              	GLOBAL _phase_tot
509   0000              	GLOBAL _phase_left
510   0000              	GLOBAL _phase_quota
511   0000              	GLOBAL _phases
512   0000              	GLOBAL _spr_idx
513   0000              	GLOBAL _lvl_1
514   0000              	GLOBAL _sprite_speed_alt
515   0000              	GLOBAL _sprite_speed
516   0000              	GLOBAL _screen_ink
517   0000              	GLOBAL _screen_paper
518   0000              	GLOBAL _game_menu_sel
519   0000              	GLOBAL _game_type
520   0000              	GLOBAL _game_bonus
521   0000              	GLOBAL _spr_water_time
522   0000              	GLOBAL _spr_water_clear
523   0000              	GLOBAL _game_time_fireball_start
524   0000              	GLOBAL _game_time_flipped
525   0000              	GLOBAL _game_score_top
526   0000              	GLOBAL _game_lives_update
527   0000              	GLOBAL _game_lives
528   0000              	GLOBAL _game_over
529   0000              	GLOBAL _game_sound
530   0000              	GLOBAL _game_two_player
531   0000              	GLOBAL _game_brick_tile
532   0000              	GLOBAL _game_pow
533   0000              	GLOBAL _spr_count
534   0000              	GLOBAL _frame_loop_count
535   0000              	GLOBAL _col_time
536   0000              	GLOBAL _frame_time
537   0000              	GLOBAL _entry_time
538   0000              	GLOBAL _curr_time
539   0000              	GLOBAL _s_state
540   0000              	GLOBAL _attrib_hl
541   0000              	GLOBAL _attrib
542   0000              	GLOBAL _zx_val_asm
543   0000              	GLOBAL _enemies
544   0000              	GLOBAL _tmp_ui
545   0000              	GLOBAL _tmp_sc
546   0000              	GLOBAL _tmp_uc
547   0000              	GLOBAL _tmp1
548   0000              	GLOBAL _tmp0
549   0000              	GLOBAL _tmp
550   0000              	GLOBAL _index_d
551   0000              	GLOBAL _index3
552   0000              	GLOBAL _index2
553   0000              	GLOBAL _index1
554   0000              	GLOBAL _loop_count
555   0000              	GLOBAL _sprite_lin_inc_mul
556   0000              	GLOBAL _s_col1
557   0000              	GLOBAL _s_col0
558   0000              	GLOBAL _s_lin1
559   0000              	GLOBAL _s_lin0
560   0000              	GLOBAL _s_tile1
561   0000              	GLOBAL _s_tile0
562   0000              	GLOBAL _hit_count
563   0000              	GLOBAL _tile_offset_other_player
564   0000              	GLOBAL _tile_offset
565   0000              	GLOBAL _index_player
566   0000              	GLOBAL _sprite_other_player
567   0000              	GLOBAL _sprite
568   0000              	GLOBAL _player_joy
569   0000              	GLOBAL _player_next_extra
570   0000              	GLOBAL _player_score
571   0000              	GLOBAL _last_time
572   0000              	GLOBAL _sliding
573   0000              	GLOBAL _spr_timer_c
574   0000              	GLOBAL _spr_timer
575   0000              	GLOBAL _jump_lin
576   0000              	GLOBAL _player_jump_c
577   0000              	GLOBAL _hit_col
578   0000              	GLOBAL _hit_lin
579   0000              	GLOBAL _colint
580   0000              	GLOBAL _col
581   0000              	GLOBAL _lin
582   0000              	GLOBAL _tile
583   0000              	GLOBAL _state_a
584   0000              	GLOBAL _state
585   0000              	GLOBAL _class
586   0000              	GLOBAL _tbuffer
587   0000              	GLOBAL _dirs
588   0000              	GLOBAL _k2
589   0000              	GLOBAL _k1
590   0000              	GLOBAL _joyfunc2
591   0000              	GLOBAL _joyfunc1
592   0000              	GLOBAL _btiles
593   0000              	GLOBAL _spec128
594   0000              	GLOBAL _NIRVANAP_CHAR_TABLE
595   0000              	GLOBAL _NIRVANAP_WIDE_IMAGES
596   0000              	GLOBAL _NIRVANAP_TILE_IMAGES
597   0000              	GLOBAL _NIRVANAP_ISR_HOOK
598   0000              	GLOBAL _control_method
599   0000              	GLOBAL _hall_valids
600   0000              ;--------------------------------------------------------
601   0000              ; special function registers
602   0000              ;--------------------------------------------------------
603   0000              ;--------------------------------------------------------
604   0000              ; ram data
605   0000              ;--------------------------------------------------------
606   0000              	SECTION bss_compiler
607   0000              ;--------------------------------------------------------
608   0000              ; ram data
609   0000              ;--------------------------------------------------------
610   0000              
611   0000              IF 0
612   0000              
613   0000              ; .area _INITIALIZED removed by z88dk
614   0000              
615   0000              
616   0000              ENDIF
617   0000              
618   0000              ;--------------------------------------------------------
619   0000              ; absolute external ram data
620   0000              ;--------------------------------------------------------
621   0000              	SECTION IGNORE
622   0000              ;--------------------------------------------------------
623   0000              ; global & static initialisations
624   0000              ;--------------------------------------------------------
625   0000              	SECTION code_crt_init
626   0000              ;--------------------------------------------------------
627   0000              ; Home
628   0000              ;--------------------------------------------------------
629   0000              	SECTION IGNORE
630   0000              ;--------------------------------------------------------
631   0000              ; code
632   0000              ;--------------------------------------------------------
633   0000              	SECTION code_compiler
634   0000              ;	---------------------------------
635   0000              ; Function spr_chktime
636   0000              ; ---------------------------------
637   0000              _spr_chktime:
638   0000  CD 00 00    	call	___sdcc_enter_ix
639   0003  F5          	push	af
640   0004  DD 75 FE    	ld	(ix-2),l
641   0007  DD 74 FF    	ld	(ix-1),h
642   000A  E1          	pop	hl
643   000B  01 00 00    	ld	bc,_sprite_speed_alt+0
644   000E  5E          	ld	e,(hl)
645   000F  E5          	push	hl
646   0010  6B          	ld	l,e
647   0011  26 00       	ld	h,0x00
648   0013  09          	add	hl,bc
649   0014  7E          	ld	a,(hl)
650   0015  B7          	or	a, a
651   0016  20 13       	jr	NZ,l_spr_chktime_00102
652   0018  01 00 00    	ld	bc,_sprite_speed+0
653   001B  16 00       	ld	d,0x00
654   001D  21 00 00    	ld	hl,_class
655   0020  19          	add	hl, de
656   0021  6E          	ld	l, (hl)
657   0022  26 00       	ld	h,0x00
658   0024  09          	add	hl,bc
659   0025  7E          	ld	a,(hl)
660   0026  32 00 00    	ld	(_tmp),a
661   0029  18 03       	jr	l_spr_chktime_00103
662   002B              l_spr_chktime_00102:
663   002B  32 00 00    	ld	(_tmp),a
664   002E              l_spr_chktime_00103:
665   002E  3A 00 00    	ld	a,(_tmp)
666   0031  4F          	ld	c,a
667   0032  06 00       	ld	b,0x00
668   0034  60          	ld	h,b
669   0035  6B          	ld	l, e
670   0036  29          	add	hl, hl
671   0037  11 00 00    	ld	de,_last_time
672   003A  19          	add	hl,de
673   003B  5E          	ld	e,(hl)
674   003C  23          	inc	hl
675   003D  56          	ld	d,(hl)
676   003E  C5          	push	bc
677   003F  D5          	push	de
678   0040  CD 00 00    	call	_game_check_time
679   0043  F1          	pop	af
680   0044  F1          	pop	af
681   0045  7D          	ld	a,l
682   0046  B7          	or	a, a
683   0047  28 15       	jr	Z,l_spr_chktime_00105
684   0049  E1          	pop	hl
685   004A  E5          	push	hl
686   004B  6E          	ld	l,(hl)
687   004C  26 00       	ld	h,0x00
688   004E  29          	add	hl, hl
689   004F  01 00 00    	ld	bc,_last_time
690   0052  09          	add	hl,bc
691   0053  ED 5B 00 00 	ld	de,(_curr_time)
692   0057  73          	ld	(hl),e
693   0058  23          	inc	hl
694   0059  72          	ld	(hl),d
695   005A  2E 01       	ld	l,0x01
696   005C  18 02       	jr	l_spr_chktime_00106
697   005E              l_spr_chktime_00105:
698   005E  2E 00       	ld	l,0x00
699   0060              l_spr_chktime_00106:
700   0060  F1          	pop	af
701   0061  DD E1       	pop	ix
702   0063  C9          	ret
703   0064              ;	---------------------------------
704   0064              ; Function spr_move_up
705   0064              ; ---------------------------------
706   0064              _spr_move_up:
707   0064  2A 00 00    	ld	hl,(_sprite)
708   0067  26 00       	ld	h,0x00
709   0069  01 00 00    	ld	bc,_lin
710   006C  09          	add	hl,bc
711   006D  4E          	ld	c,(hl)
712   006E  21 00 00    	ld	hl,_sprite_lin_inc_mul
713   0071  46          	ld	b,(hl)
714   0072  1E 02       	ld	e,0x02
715   0074  04          	inc	b
716   0075  18 02       	jr	l_spr_move_up_00141
717   0077              l_spr_move_up_00140:
718   0077  CB 23       	sla	e
719   0079              l_spr_move_up_00141:
720   0079  10 FC       	djnz	l_spr_move_up_00140
721   007B  79          	ld	a,c
722   007C  93          	sub	a, e
723   007D  32 00 00    	ld	(_tmp1),a
724   0080  21 00 00    	ld	hl,_sprite
725   0083  7E          	ld	a,(hl)
726   0084  D6 06       	sub	a,0x06
727   0086  30 0C       	jr	NC,l_spr_move_up_00108
728   0088  4E          	ld	c,(hl)
729   0089  06 00       	ld	b,0x00
730   008B  21 00 00    	ld	hl,_class
731   008E  09          	add	hl,bc
732   008F  7E          	ld	a,(hl)
733   0090  D6 0A       	sub	a,0x0a
734   0092  20 42       	jr	NZ,l_spr_move_up_00109
735   0094              l_spr_move_up_00108:
736   0094  3A 00 00    	ld	a,(_sprite)
737   0097  C6 00       	add	a,+((_col) & 0xFF)
738   0099  4F          	ld	c,a
739   009A  3E 00       	ld	a,+((_col) / 256)
740   009C  CE 00       	adc	a,0x00
741   009E  47          	ld	b,a
742   009F  0A          	ld	a,(bc)
743   00A0  F5          	push	af
744   00A1  33          	inc	sp
745   00A2  3A 00 00    	ld	a,(_tmp1)
746   00A5  F5          	push	af
747   00A6  33          	inc	sp
748   00A7  CD 00 00    	call	_game_calc_index
749   00AA  F1          	pop	af
750   00AB  22 00 00    	ld	(_index1),hl
751   00AE  CD 00 00    	call	_game_check_maze
752   00B1  7D          	ld	a,l
753   00B2  B7          	or	a, a
754   00B3  20 21       	jr	NZ,l_spr_move_up_00109
755   00B5  21 00 00    	ld	hl,_sprite
756   00B8  7E          	ld	a,(hl)
757   00B9  D6 06       	sub	a,0x06
758   00BB  38 15       	jr	C,l_spr_move_up_00104
759   00BD  4E          	ld	c,(hl)
760   00BE  06 00       	ld	b,0x00
761   00C0  21 00 00    	ld	hl,_state_a
762   00C3  09          	add	hl,bc
763   00C4  7E          	ld	a,(hl)
764   00C5  07          	rlca
765   00C6  38 0A       	jr	C,l_spr_move_up_00104
766   00C8  CD 00 00    	call	_player_hit_pow
767   00CB  7D          	ld	a,l
768   00CC  B7          	or	a, a
769   00CD  20 03       	jr	NZ,l_spr_move_up_00104
770   00CF  CD 00 00    	call	_player_hit_brick
771   00D2              l_spr_move_up_00104:
772   00D2  2E 01       	ld	l,0x01
773   00D4  18 3B       	jr	l_spr_move_up_00114
774   00D6              l_spr_move_up_00109:
775   00D6  3A 00 00    	ld	a,(_sprite)
776   00D9  C6 00       	add	a,+((_lin) & 0xFF)
777   00DB  4F          	ld	c,a
778   00DC  3E 00       	ld	a,+((_lin) / 256)
779   00DE  CE 00       	adc	a,0x00
780   00E0  47          	ld	b,a
781   00E1  3A 00 00    	ld	a,(_tmp1)
782   00E4  02          	ld	(bc),a
783   00E5  3A 00 00    	ld	a,(_sprite)
784   00E8  C6 00       	add	a,+((_lin) & 0xFF)
785   00EA  4F          	ld	c,a
786   00EB  3E 00       	ld	a,+((_lin) / 256)
787   00ED  CE 00       	adc	a,0x00
788   00EF  47          	ld	b,a
789   00F0  0A          	ld	a,(bc)
790   00F1  5F          	ld	e,a
791   00F2  B7          	or	a, a
792   00F3  28 05       	jr	Z,l_spr_move_up_00111
793   00F5  3E 98       	ld	a,0x98
794   00F7  93          	sub	a, e
795   00F8  30 15       	jr	NC,l_spr_move_up_00112
796   00FA              l_spr_move_up_00111:
797   00FA  AF          	xor	a, a
798   00FB  02          	ld	(bc),a
799   00FC  3A 00 00    	ld	a,(_s_col0)
800   00FF  F5          	push	af
801   0100  33          	inc	sp
802   0101  3A 00 00    	ld	a,(_s_lin0)
803   0104  57          	ld	d,a
804   0105  1E 12       	ld	e,0x12
805   0107  D5          	push	de
806   0108  CD 00 00    	call	_NIRVANAP_fillT_callee
807   010B  2E 01       	ld	l,0x01
808   010D  18 02       	jr	l_spr_move_up_00114
809   010F              l_spr_move_up_00112:
810   010F  2E 00       	ld	l,0x00
811   0111              l_spr_move_up_00114:
812   0111  C9          	ret
813   0112              ;	---------------------------------
814   0112              ; Function spr_move_down
815   0112              ; ---------------------------------
816   0112              _spr_move_down:
817   0112  2A 00 00    	ld	hl,(_sprite)
818   0115  26 00       	ld	h,0x00
819   0117  01 00 00    	ld	bc,_lin
820   011A  09          	add	hl,bc
821   011B  4E          	ld	c,(hl)
822   011C  21 00 00    	ld	hl,_sprite_lin_inc_mul
823   011F  46          	ld	b,(hl)
824   0120  1E 02       	ld	e,0x02
825   0122  04          	inc	b
826   0123  18 02       	jr	l_spr_move_down_00116
827   0125              l_spr_move_down_00115:
828   0125  CB 23       	sla	e
829   0127              l_spr_move_down_00116:
830   0127  10 FC       	djnz	l_spr_move_down_00115
831   0129  79          	ld	a,c
832   012A  83          	add	a, e
833   012B  32 00 00    	ld	(_tmp1),a
834   012E  3A 00 00    	ld	a,(_sprite)
835   0131  C6 00       	add	a,+((_col) & 0xFF)
836   0133  4F          	ld	c,a
837   0134  3E 00       	ld	a,+((_col) / 256)
838   0136  CE 00       	adc	a,0x00
839   0138  47          	ld	b,a
840   0139  0A          	ld	a,(bc)
841   013A  57          	ld	d,a
842   013B  3A 00 00    	ld	a,(_tmp1)
843   013E  C6 10       	add	a,0x10
844   0140  5F          	ld	e, a
845   0141  D5          	push	de
846   0142  CD 00 00    	call	_game_calc_index
847   0145  F1          	pop	af
848   0146  22 00 00    	ld	(_index1),hl
849   0149  CD 00 00    	call	_game_check_maze
850   014C  3A 00 00    	ld	a,(_sprite)
851   014F  C6 00       	add	a,+((_lin) & 0xFF)
852   0151  4D          	ld	c,l
853   0152  5F          	ld	e,a
854   0153  3E 00       	ld	a,+((_lin) / 256)
855   0155  CE 00       	adc	a,0x00
856   0157  57          	ld	d,a
857   0158  79          	ld	a,c
858   0159  B7          	or	a, a
859   015A  20 12       	jr	NZ,l_spr_move_down_00102
860   015C  3A 00 00    	ld	a,(_tmp1)
861   015F  0F          	rrca
862   0160  0F          	rrca
863   0161  0F          	rrca
864   0162  E6 1F       	and	a,0x1f
865   0164  07          	rlca
866   0165  07          	rlca
867   0166  07          	rlca
868   0167  E6 F8       	and	a,0xf8
869   0169  12          	ld	(de),a
870   016A  2E 01       	ld	l,0x01
871   016C  18 24       	jr	l_spr_move_down_00105
872   016E              l_spr_move_down_00102:
873   016E  3A 00 00    	ld	a,(_tmp1)
874   0171  12          	ld	(de),a
875   0172  3A 00 00    	ld	a,(_sprite)
876   0175  C6 00       	add	a,+((_lin) & 0xFF)
877   0177  4F          	ld	c,a
878   0178  3E 00       	ld	a,+((_lin) / 256)
879   017A  CE 00       	adc	a,0x00
880   017C  47          	ld	b,a
881   017D  0A          	ld	a,(bc)
882   017E  5F          	ld	e,a
883   017F  3E 98       	ld	a,0x98
884   0181  93          	sub	a, e
885   0182  30 0C       	jr	NC,l_spr_move_down_00104
886   0184  21 00 00    	ld	hl,_s_state
887   0187  CB 8E       	res	1, (hl)
888   0189  3E 98       	ld	a,0x98
889   018B  02          	ld	(bc),a
890   018C  2E 01       	ld	l,0x01
891   018E  18 02       	jr	l_spr_move_down_00105
892   0190              l_spr_move_down_00104:
893   0190  2E 00       	ld	l,0x00
894   0192              l_spr_move_down_00105:
895   0192  C9          	ret
896   0193              ;	---------------------------------
897   0193              ; Function spr_move_horizontal
898   0193              ; ---------------------------------
899   0193              _spr_move_horizontal:
900   0193  3A 00 00    	ld	a,(_sprite)
901   0196  C6 00       	add	a,+((_state) & 0xFF)
902   0198  4F          	ld	c,a
903   0199  3E 00       	ld	a,+((_state) / 256)
904   019B  CE 00       	adc	a,0x00
905   019D  47          	ld	b,a
906   019E  0A          	ld	a,(bc)
907   019F  CB 57       	bit	2, a
908   01A1  28 05       	jr	Z,l_spr_move_horizontal_00104
909   01A3  CD AF 01    	call	_spr_move_right
910   01A6  18 06       	jr	l_spr_move_horizontal_00106
911   01A8              l_spr_move_horizontal_00104:
912   01A8  CB 5F       	bit	3, a
913   01AA  C8          	ret	Z
914   01AB  CD ED 01    	call	_spr_move_left
915   01AE              l_spr_move_horizontal_00106:
916   01AE  C9          	ret
917   01AF              ;	---------------------------------
918   01AF              ; Function spr_move_right
919   01AF              ; ---------------------------------
920   01AF              _spr_move_right:
921   01AF  01 00 00    	ld	bc,_colint+0
922   01B2  79          	ld	a,c
923   01B3  21 00 00    	ld	hl,_sprite
924   01B6  86          	add	a, (hl)
925   01B7  5F          	ld	e,a
926   01B8  78          	ld	a,b
927   01B9  CE 00       	adc	a,0x00
928   01BB  57          	ld	d,a
929   01BC  1A          	ld	a,(de)
930   01BD  3C          	inc	a
931   01BE  12          	ld	(de),a
932   01BF  79          	ld	a,c
933   01C0  86          	add	a, (hl)
934   01C1  4F          	ld	c,a
935   01C2  78          	ld	a,b
936   01C3  CE 00       	adc	a,0x00
937   01C5  47          	ld	b,a
938   01C6  0A          	ld	a,(bc)
939   01C7  D6 03       	sub	a,0x03
940   01C9  20 1F       	jr	NZ,l_spr_move_right_00104
941   01CB  AF          	xor	a, a
942   01CC  02          	ld	(bc),a
943   01CD  01 00 00    	ld	bc,_col+0
944   01D0  79          	ld	a,c
945   01D1  86          	add	a, (hl)
946   01D2  5F          	ld	e,a
947   01D3  78          	ld	a,b
948   01D4  CE 00       	adc	a,0x00
949   01D6  57          	ld	d,a
950   01D7  1A          	ld	a,(de)
951   01D8  3C          	inc	a
952   01D9  12          	ld	(de),a
953   01DA  79          	ld	a,c
954   01DB  86          	add	a, (hl)
955   01DC  4F          	ld	c,a
956   01DD  78          	ld	a,b
957   01DE  CE 00       	adc	a,0x00
958   01E0  47          	ld	b,a
959   01E1  0A          	ld	a,(bc)
960   01E2  5F          	ld	e,a
961   01E3  3E 1E       	ld	a,0x1e
962   01E5  93          	sub	a, e
963   01E6  30 02       	jr	NC,l_spr_move_right_00104
964   01E8  AF          	xor	a, a
965   01E9  02          	ld	(bc),a
966   01EA              l_spr_move_right_00104:
967   01EA  2E 00       	ld	l,0x00
968   01EC  C9          	ret
969   01ED              ;	---------------------------------
970   01ED              ; Function spr_move_left
971   01ED              ; ---------------------------------
972   01ED              _spr_move_left:
973   01ED  01 00 00    	ld	bc,_colint+0
974   01F0  79          	ld	a,c
975   01F1  21 00 00    	ld	hl,_sprite
976   01F4  86          	add	a, (hl)
977   01F5  5F          	ld	e,a
978   01F6  78          	ld	a,b
979   01F7  CE 00       	adc	a,0x00
980   01F9  57          	ld	d,a
981   01FA  1A          	ld	a,(de)
982   01FB  C6 FF       	add	a,0xff
983   01FD  12          	ld	(de),a
984   01FE  79          	ld	a,c
985   01FF  86          	add	a, (hl)
986   0200  4F          	ld	c,a
987   0201  78          	ld	a,b
988   0202  CE 00       	adc	a,0x00
989   0204  47          	ld	b,a
990   0205  0A          	ld	a,(bc)
991   0206  3C          	inc	a
992   0207  20 1F       	jr	NZ,l_spr_move_left_00104
993   0209  3E 02       	ld	a,0x02
994   020B  02          	ld	(bc),a
995   020C  01 00 00    	ld	bc,_col+0
996   020F  79          	ld	a,c
997   0210  86          	add	a, (hl)
998   0211  5F          	ld	e,a
999   0212  78          	ld	a,b
1000  0213  CE 00       	adc	a,0x00
1001  0215  57          	ld	d,a
1002  0216  1A          	ld	a,(de)
1003  0217  C6 FF       	add	a,0xff
1004  0219  12          	ld	(de),a
1005  021A  79          	ld	a,c
1006  021B  86          	add	a, (hl)
1007  021C  4F          	ld	c,a
1008  021D  78          	ld	a,b
1009  021E  CE 00       	adc	a,0x00
1010  0220  47          	ld	b,a
1011  0221  0A          	ld	a,(bc)
1012  0222  3C          	inc	a
1013  0223  20 03       	jr	NZ,l_spr_move_left_00104
1014  0225  3E 1E       	ld	a,0x1e
1015  0227  02          	ld	(bc),a
1016  0228              l_spr_move_left_00104:
1017  0228  2E 00       	ld	l,0x00
1018  022A  C9          	ret
1019  022B              ;	---------------------------------
1020  022B              ; Function spr_redraw
1021  022B              ; ---------------------------------
1022  022B              _spr_redraw:
1023  022B  3E 00       	ld	a,+((_tile) & 0xFF)
1024  022D  21 00 00    	ld	hl,_sprite
1025  0230  86          	add	a, (hl)
1026  0231  4F          	ld	c,a
1027  0232  3E 00       	ld	a,+((_tile) / 256)
1028  0234  CE 00       	adc	a,0x00
1029  0236  47          	ld	b,a
1030  0237  0A          	ld	a,(bc)
1031  0238  4F          	ld	c,a
1032  0239  5E          	ld	e,(hl)
1033  023A  16 00       	ld	d,0x00
1034  023C  21 00 00    	ld	hl,_colint
1035  023F  19          	add	hl,de
1036  0240  7E          	ld	a,(hl)
1037  0241  81          	add	a,c
1038  0242  32 00 00    	ld	(_s_tile1),a
1039  0245  2A 00 00    	ld	hl,(_sprite)
1040  0248  26 00       	ld	h,0x00
1041  024A  01 00 00    	ld	bc,_lin
1042  024D  09          	add	hl,bc
1043  024E  46          	ld	b,(hl)
1044  024F  3A 00 00    	ld	a,(_s_lin0)
1045  0252  90          	sub	a, b
1046  0253  20 10       	jr	NZ,l_spr_redraw_00111
1047  0255  2A 00 00    	ld	hl,(_sprite)
1048  0258  26 00       	ld	h,0x00
1049  025A  11 00 00    	ld	de,_col
1050  025D  19          	add	hl,de
1051  025E  56          	ld	d, (hl)
1052  025F  3A 00 00    	ld	a,(_s_col0)
1053  0262  92          	sub	a, d
1054  0263  28 68       	jr	Z,l_spr_redraw_00112
1055  0265              l_spr_redraw_00111:
1056  0265  3E 10       	ld	a,0x10
1057  0267  21 00 00    	ld	hl,_s_lin0
1058  026A  96          	sub	a, (hl)
1059  026B  38 0C       	jr	C,l_spr_redraw_00102
1060  026D  3A 00 00    	ld	a,(_s_col0)
1061  0270  F5          	push	af
1062  0271  33          	inc	sp
1063  0272  21 00 08    	ld	hl,0x0800
1064  0275  E5          	push	hl
1065  0276  CD 00 00    	call	_NIRVANAP_fillT_callee
1066  0279              l_spr_redraw_00102:
1067  0279  3E 00       	ld	a,+((_col) & 0xFF)
1068  027B  21 00 00    	ld	hl,_sprite
1069  027E  86          	add	a, (hl)
1070  027F  4F          	ld	c,a
1071  0280  3E 00       	ld	a,+((_col) / 256)
1072  0282  CE 00       	adc	a,0x00
1073  0284  47          	ld	b,a
1074  0285  0A          	ld	a,(bc)
1075  0286  57          	ld	d,a
1076  0287  4E          	ld	c,(hl)
1077  0288  06 00       	ld	b,0x00
1078  028A  21 00 00    	ld	hl,_lin
1079  028D  09          	add	hl,bc
1080  028E  5E          	ld	e, (hl)
1081  028F  D5          	push	de
1082  0290  2A FF FF    	ld	hl,(_s_tile1 - 1)
1083  0293  3A 00 00    	ld	a,(_sprite)
1084  0296  6F          	ld	l,a
1085  0297  E5          	push	hl
1086  0298  CD 00 00    	call	_NIRVANAP_spriteT_callee
1087  029B  CD D6 04    	call	_spr_check_over
1088  029E  7D          	ld	a,l
1089  029F  B7          	or	a, a
1090  02A0  20 41       	jr	NZ,l_spr_redraw_00113
1091  02A2  3A 00 00    	ld	a,(_sprite)
1092  02A5  C6 00       	add	a,+((_state) & 0xFF)
1093  02A7  4F          	ld	c,a
1094  02A8  3E 00       	ld	a,+((_state) / 256)
1095  02AA  CE 00       	adc	a,0x00
1096  02AC  47          	ld	b,a
1097  02AD  0A          	ld	a,(bc)
1098  02AE  CB 47       	bit	0, a
1099  02B0  28 09       	jr	Z,l_spr_redraw_00104
1100  02B2  2E 10       	ld	l,0x10
1101  02B4  CD 69 08    	call	_spr_back_fix
1102  02B7  2E 00       	ld	l,0x00
1103  02B9  18 2A       	jr	l_spr_redraw_00115
1104  02BB              l_spr_redraw_00104:
1105  02BB  CB 4F       	bit	1, a
1106  02BD  28 09       	jr	Z,l_spr_redraw_00106
1107  02BF  2E 00       	ld	l,0x00
1108  02C1  CD 69 08    	call	_spr_back_fix
1109  02C4  2E 00       	ld	l,0x00
1110  02C6  18 1D       	jr	l_spr_redraw_00115
1111  02C8              l_spr_redraw_00106:
1112  02C8  CD 27 08    	call	_spr_back_clr
1113  02CB  18 16       	jr	l_spr_redraw_00113
1114  02CD              l_spr_redraw_00112:
1115  02CD  3A 00 00    	ld	a,(_s_tile1)
1116  02D0  21 00 00    	ld	hl,_s_tile0
1117  02D3  96          	sub	a, (hl)
1118  02D4  28 0D       	jr	Z,l_spr_redraw_00113
1119  02D6  58          	ld	e,b
1120  02D7  D5          	push	de
1121  02D8  2A FF FF    	ld	hl,(_s_tile1 - 1)
1122  02DB  3A 00 00    	ld	a,(_sprite)
1123  02DE  6F          	ld	l,a
1124  02DF  E5          	push	hl
1125  02E0  CD 00 00    	call	_NIRVANAP_spriteT_callee
1126  02E3              l_spr_redraw_00113:
1127  02E3  2E 00       	ld	l,0x00
1128  02E5              l_spr_redraw_00115:
1129  02E5  C9          	ret
1130  02E6              ;	---------------------------------
1131  02E6              ; Function spr_killed
1132  02E6              ; ---------------------------------
1133  02E6              _spr_killed:
1134  02E6  45          	ld	b,l
1135  02E7  11 00 00    	ld	de,_class+0
1136  02EA  26 00       	ld	h,0x00
1137  02EC  19          	add	hl,de
1138  02ED  7E          	ld	a,(hl)
1139  02EE  4F          	ld	c,a
1140  02EF  D6 07       	sub	a,0x07
1141  02F1  28 13       	jr	Z,l_spr_killed_00101
1142  02F3  79          	ld	a,c
1143  02F4  FE 08       	cp	a,0x08
1144  02F6  28 28       	jr	Z,l_spr_killed_00103
1145  02F8  FE 0A       	cp	a,0x0a
1146  02FA  28 31       	jr	Z,l_spr_killed_00104
1147  02FC  FE 0B       	cp	a,0x0b
1148  02FE  28 42       	jr	Z,l_spr_killed_00105
1149  0300  D6 0C       	sub	a,0x0c
1150  0302  28 0F       	jr	Z,l_spr_killed_00102
1151  0304  18 51       	jr	l_spr_killed_00106
1152  0306              l_spr_killed_00101:
1153  0306  21 81 00    	ld	hl,0x0081
1154  0309  E5          	push	hl
1155  030A  C5          	push	bc
1156  030B  33          	inc	sp
1157  030C  CD 4D 04    	call	_spr_anim_kill
1158  030F  F1          	pop	af
1159  0310  33          	inc	sp
1160  0311  18 48       	jr	l_spr_killed_00107
1161  0313              l_spr_killed_00102:
1162  0313  21 BA 00    	ld	hl,0x00ba
1163  0316  E5          	push	hl
1164  0317  C5          	push	bc
1165  0318  33          	inc	sp
1166  0319  CD 4D 04    	call	_spr_anim_kill
1167  031C  F1          	pop	af
1168  031D  33          	inc	sp
1169  031E  18 3B       	jr	l_spr_killed_00107
1170  0320              l_spr_killed_00103:
1171  0320  21 BA 00    	ld	hl,0x00ba
1172  0323  E5          	push	hl
1173  0324  C5          	push	bc
1174  0325  33          	inc	sp
1175  0326  CD 4D 04    	call	_spr_anim_kill
1176  0329  F1          	pop	af
1177  032A  33          	inc	sp
1178  032B  18 2E       	jr	l_spr_killed_00107
1179  032D              l_spr_killed_00104:
1180  032D  C5          	push	bc
1181  032E  68          	ld	l,b
1182  032F  CD D2 05    	call	_spr_tile
1183  0332  EB          	ex	de,hl
1184  0333  C1          	pop	bc
1185  0334  EB          	ex	de,hl
1186  0335  23          	inc	hl
1187  0336  23          	inc	hl
1188  0337  23          	inc	hl
1189  0338  E5          	push	hl
1190  0339  C5          	push	bc
1191  033A  33          	inc	sp
1192  033B  CD 4D 04    	call	_spr_anim_kill
1193  033E  F1          	pop	af
1194  033F  33          	inc	sp
1195  0340  18 19       	jr	l_spr_killed_00107
1196  0342              l_spr_killed_00105:
1197  0342  C5          	push	bc
1198  0343  68          	ld	l,b
1199  0344  CD D2 05    	call	_spr_tile
1200  0347  EB          	ex	de,hl
1201  0348  C1          	pop	bc
1202  0349  EB          	ex	de,hl
1203  034A  23          	inc	hl
1204  034B  23          	inc	hl
1205  034C  23          	inc	hl
1206  034D  E5          	push	hl
1207  034E  C5          	push	bc
1208  034F  33          	inc	sp
1209  0350  CD 4D 04    	call	_spr_anim_kill
1210  0353  F1          	pop	af
1211  0354  33          	inc	sp
1212  0355  18 04       	jr	l_spr_killed_00107
1213  0357              l_spr_killed_00106:
1214  0357  68          	ld	l,b
1215  0358  CD 5E 03    	call	_spr_anim_fall
1216  035B              l_spr_killed_00107:
1217  035B  2E 00       	ld	l,0x00
1218  035D  C9          	ret
1219  035E              ;	---------------------------------
1220  035E              ; Function spr_anim_fall
1221  035E              ; ---------------------------------
1222  035E              _spr_anim_fall:
1223  035E  CD 00 00    	call	___sdcc_enter_ix
1224  0361  F5          	push	af
1225  0362  45          	ld	b,l
1226  0363  3E 00       	ld	a,+((_lin) & 0xFF)
1227  0365  80          	add	a, b
1228  0366  DD 77 FE    	ld	(ix-2),a
1229  0369  3E 00       	ld	a,+((_lin) / 256)
1230  036B  CE 00       	adc	a,0x00
1231  036D  DD 77 FF    	ld	(ix-1),a
1232  0370  E1          	pop	hl
1233  0371  7E          	ld	a,(hl)
1234  0372  E5          	push	hl
1235  0373  4F          	ld	c,a
1236  0374  D6 98       	sub	a,0x98
1237  0376  30 34       	jr	NC,l_spr_anim_fall_00114
1238  0378  11 00 00    	ld	de,_col+0
1239  037B  68          	ld	l,b
1240  037C  26 00       	ld	h,0x00
1241  037E  19          	add	hl,de
1242  037F  7E          	ld	a,(hl)
1243  0380  32 00 00    	ld	(_s_col0),a
1244  0383  21 00 00    	ld	hl,_s_lin0
1245  0386  71          	ld	(hl),c
1246  0387  0C          	inc	c
1247  0388  0C          	inc	c
1248  0389  0C          	inc	c
1249  038A  0C          	inc	c
1250  038B  E1          	pop	hl
1251  038C  E5          	push	hl
1252  038D  71          	ld	(hl),c
1253  038E  11 00 00    	ld	de,_tile+0
1254  0391  68          	ld	l,b
1255  0392  26 00       	ld	h,0x00
1256  0394  19          	add	hl,de
1257  0395  56          	ld	d,(hl)
1258  0396  3A 00 00    	ld	a,(_s_col0)
1259  0399  F5          	push	af
1260  039A  33          	inc	sp
1261  039B  79          	ld	a,c
1262  039C  5A          	ld	e,d
1263  039D  57          	ld	d,a
1264  039E  D5          	push	de
1265  039F  C5          	push	bc
1266  03A0  33          	inc	sp
1267  03A1  CD 00 00    	call	_NIRVANAP_spriteT_callee
1268  03A4  2E 00       	ld	l,0x00
1269  03A6  CD 69 08    	call	_spr_back_fix
1270  03A9  C3 49 04    	jp	l_spr_anim_fall_00116
1271  03AC              l_spr_anim_fall_00114:
1272  03AC  3E 00       	ld	a,+((_col) & 0xFF)
1273  03AE  80          	add	a, b
1274  03AF  5F          	ld	e,a
1275  03B0  3E 00       	ld	a,+((_col) / 256)
1276  03B2  CE 00       	adc	a,0x00
1277  03B4  57          	ld	d,a
1278  03B5  1A          	ld	a,(de)
1279  03B6  32 00 00    	ld	(_s_col1),a
1280  03B9  6F          	ld	l,a
1281  03BA  C5          	push	bc
1282  03BB  D5          	push	de
1283  03BC  CD D8 0B    	call	_spr_water_splash_draw
1284  03BF  D1          	pop	de
1285  03C0  C1          	pop	bc
1286  03C1  78          	ld	a,b
1287  03C2  D6 06       	sub	a,0x06
1288  03C4  38 5F       	jr	C,l_spr_anim_fall_00107
1289  03C6  C5          	push	bc
1290  03C7  D5          	push	de
1291  03C8  CD 00 00    	call	_player_lost_life
1292  03CB  D1          	pop	de
1293  03CC  C1          	pop	bc
1294  03CD  7D          	ld	a,l
1295  03CE  B7          	or	a, a
1296  03CF  28 16       	jr	Z,l_spr_anim_fall_00102
1297  03D1  76          	halt
1298  03D2  E1          	pop	hl
1299  03D3  1A          	ld	a,(de)
1300  03D4  56          	ld	d,(hl)
1301  03D5  E5          	push	hl
1302  03D6  C5          	push	bc
1303  03D7  5A          	ld	e,d
1304  03D8  57          	ld	d,a
1305  03D9  D5          	push	de
1306  03DA  AF          	xor	a, a
1307  03DB  F5          	push	af
1308  03DC  33          	inc	sp
1309  03DD  CD 00 00    	call	_NIRVANAP_fillT_callee
1310  03E0  C1          	pop	bc
1311  03E1  68          	ld	l,b
1312  03E2  CD 00 00    	call	_player_restart
1313  03E5  18 4D       	jr	l_spr_anim_fall_00108
1314  03E7              l_spr_anim_fall_00102:
1315  03E7  C5          	push	bc
1316  03E8  D5          	push	de
1317  03E9  CD 00 00    	call	_game_print_footer
1318  03EC  D1          	pop	de
1319  03ED  C1          	pop	bc
1320  03EE  E1          	pop	hl
1321  03EF  1A          	ld	a,(de)
1322  03F0  E5          	push	hl
1323  03F1  66          	ld	h,(hl)
1324  03F2  C5          	push	bc
1325  03F3  D5          	push	de
1326  03F4  6C          	ld	l,h
1327  03F5  67          	ld	h,a
1328  03F6  E5          	push	hl
1329  03F7  AF          	xor	a, a
1330  03F8  F5          	push	af
1331  03F9  33          	inc	sp
1332  03FA  CD 00 00    	call	_NIRVANAP_fillT_callee
1333  03FD  D1          	pop	de
1334  03FE  C1          	pop	bc
1335  03FF  AF          	xor	a, a
1336  0400  E1          	pop	hl
1337  0401  12          	ld	(de),a
1338  0402  E5          	push	hl
1339  0403  36 00       	ld	(hl),0x00
1340  0405  11 00 00    	ld	de,_class+0
1341  0408  68          	ld	l,b
1342  0409  26 00       	ld	h,0x00
1343  040B  19          	add	hl,de
1344  040C  36 00       	ld	(hl),0x00
1345  040E  11 00 00    	ld	de,_state+0
1346  0411  68          	ld	l,b
1347  0412  26 00       	ld	h,0x00
1348  0414  19          	add	hl,de
1349  0415  36 00       	ld	(hl),0x00
1350  0417  21 00 00    	ld	hl,0x0000
1351  041A  E5          	push	hl
1352  041B  3E A9       	ld	a,0xa9
1353  041D  48          	ld	c,b
1354  041E  47          	ld	b,a
1355  041F  C5          	push	bc
1356  0420  CD 00 00    	call	_NIRVANAP_spriteT_callee
1357  0423  18 0F       	jr	l_spr_anim_fall_00108
1358  0425              l_spr_anim_fall_00107:
1359  0425  68          	ld	l,b
1360  0426  CD 25 05    	call	_spr_destroy
1361  0429  3A 00 00    	ld	a,(_phase_left)
1362  042C  B7          	or	a, a
1363  042D  20 05       	jr	NZ,l_spr_anim_fall_00108
1364  042F  21 00 00    	ld	hl,_phase_end
1365  0432  36 01       	ld	(hl),0x01
1366  0434              l_spr_anim_fall_00108:
1367  0434  3E 04       	ld	a,0x04
1368  0436  21 00 00    	ld	hl,_s_col1
1369  0439  96          	sub	a, (hl)
1370  043A  38 03       	jr	C,l_spr_anim_fall_00110
1371  043C  CD ED 09    	call	_spr_back_fix3
1372  043F              l_spr_anim_fall_00110:
1373  043F  3A 00 00    	ld	a,(_s_col1)
1374  0442  D6 1A       	sub	a,0x1a
1375  0444  38 03       	jr	C,l_spr_anim_fall_00116
1376  0446  CD 2F 0A    	call	_spr_back_fix4
1377  0449              l_spr_anim_fall_00116:
1378  0449  F1          	pop	af
1379  044A  DD E1       	pop	ix
1380  044C  C9          	ret
1381  044D              ;	---------------------------------
1382  044D              ; Function spr_anim_kill
1383  044D              ; ---------------------------------
1384  044D              _spr_anim_kill:
1385  044D  CD 00 00    	call	___sdcc_enter_ix
1386  0450  F5          	push	af
1387  0451  DD 4E 04    	ld	c,(ix+4)
1388  0454  06 00       	ld	b,0x00
1389  0456  CB 21       	sla	c
1390  0458  CB 10       	rl	b
1391  045A  21 00 00    	ld	hl,_last_time
1392  045D  09          	add	hl,bc
1393  045E  E3          	ex	(sp), hl
1394  045F  E1          	pop	hl
1395  0460  ED 5B 00 00 	ld	de,(_curr_time)
1396  0464  E5          	push	hl
1397  0465  73          	ld	(hl),e
1398  0466  23          	inc	hl
1399  0467  72          	ld	(hl),d
1400  0468  2A 00 00    	ld	hl,(_curr_time)
1401  046B  5D          	ld	e,l
1402  046C  21 00 00    	ld	hl,_spr_timer
1403  046F  09          	add	hl,bc
1404  0470  4E          	ld	c,(hl)
1405  0471  7B          	ld	a,e
1406  0472  91          	sub	a, c
1407  0473  32 00 00    	ld	(_tmp0),a
1408  0476  21 00 00    	ld	hl,_tmp
1409  0479  36 02       	ld	(hl),0x02
1410  047B  3E 28       	ld	a,0x28
1411  047D  21 00 00    	ld	hl,_tmp0
1412  0480  96          	sub	a, (hl)
1413  0481  38 05       	jr	C,l_spr_anim_kill_00102
1414  0483  21 00 00    	ld	hl,_tmp
1415  0486  36 01       	ld	(hl),0x01
1416  0488              l_spr_anim_kill_00102:
1417  0488  3E 14       	ld	a,0x14
1418  048A  21 00 00    	ld	hl,_tmp0
1419  048D  96          	sub	a, (hl)
1420  048E  38 05       	jr	C,l_spr_anim_kill_00104
1421  0490  21 00 00    	ld	hl,_tmp
1422  0493  36 00       	ld	(hl),0x00
1423  0495              l_spr_anim_kill_00104:
1424  0495  3E 3C       	ld	a,0x3c
1425  0497  21 00 00    	ld	hl,_tmp0
1426  049A  96          	sub	a, (hl)
1427  049B  38 2F       	jr	C,l_spr_anim_kill_00106
1428  049D  3E 00       	ld	a,+((_col) & 0xFF)
1429  049F  DD 86 04    	add	a,(ix+4)
1430  04A2  4F          	ld	c,a
1431  04A3  3E 00       	ld	a,+((_col) / 256)
1432  04A5  CE 00       	adc	a,0x00
1433  04A7  47          	ld	b,a
1434  04A8  0A          	ld	a,(bc)
1435  04A9  47          	ld	b,a
1436  04AA  3E 00       	ld	a,+((_lin) & 0xFF)
1437  04AC  DD 86 04    	add	a,(ix+4)
1438  04AF  5F          	ld	e,a
1439  04B0  3E 00       	ld	a,+((_lin) / 256)
1440  04B2  CE 00       	adc	a,0x00
1441  04B4  57          	ld	d,a
1442  04B5  1A          	ld	a,(de)
1443  04B6  57          	ld	d,a
1444  04B7  DD 7E 05    	ld	a,(ix+5)
1445  04BA  21 00 00    	ld	hl,_tmp
1446  04BD  86          	add	a, (hl)
1447  04BE  4A          	ld	c, d
1448  04BF  C5          	push	bc
1449  04C0  F5          	push	af
1450  04C1  33          	inc	sp
1451  04C2  DD 7E 04    	ld	a,(ix+4)
1452  04C5  F5          	push	af
1453  04C6  33          	inc	sp
1454  04C7  CD 00 00    	call	_NIRVANAP_spriteT_callee
1455  04CA  18 06       	jr	l_spr_anim_kill_00108
1456  04CC              l_spr_anim_kill_00106:
1457  04CC  DD 6E 04    	ld	l,(ix+4)
1458  04CF  CD 25 05    	call	_spr_destroy
1459  04D2              l_spr_anim_kill_00108:
1460  04D2  F1          	pop	af
1461  04D3  DD E1       	pop	ix
1462  04D5  C9          	ret
1463  04D6              ;	---------------------------------
1464  04D6              ; Function spr_check_over
1465  04D6              ; ---------------------------------
1466  04D6              _spr_check_over:
1467  04D6  21 00 00    	ld	hl,_s_col0
1468  04D9  7E          	ld	a,(hl)
1469  04DA  D6 04       	sub	a,0x04
1470  04DC  3E 00       	ld	a,0x00
1471  04DE  17          	rla
1472  04DF  4F          	ld	c,a
1473  04E0  3E 1A       	ld	a,0x1a
1474  04E2  96          	sub	a, (hl)
1475  04E3  3E 00       	ld	a,0x00
1476  04E5  17          	rla
1477  04E6  47          	ld	b,a
1478  04E7  3A 00 00    	ld	a,(_s_lin0)
1479  04EA  D6 88       	sub	a,0x88
1480  04EC  38 16       	jr	C,l_spr_check_over_00112
1481  04EE  79          	ld	a,c
1482  04EF  B7          	or	a, a
1483  04F0  28 07       	jr	Z,l_spr_check_over_00102
1484  04F2  CD ED 09    	call	_spr_back_fix3
1485  04F5  2E 01       	ld	l,0x01
1486  04F7  18 2B       	jr	l_spr_check_over_00114
1487  04F9              l_spr_check_over_00102:
1488  04F9  78          	ld	a,b
1489  04FA  B7          	or	a, a
1490  04FB  28 25       	jr	Z,l_spr_check_over_00113
1491  04FD  CD 2F 0A    	call	_spr_back_fix4
1492  0500  2E 01       	ld	l,0x01
1493  0502  18 20       	jr	l_spr_check_over_00114
1494  0504              l_spr_check_over_00112:
1495  0504  3E 28       	ld	a,0x28
1496  0506  21 00 00    	ld	hl,_s_lin0
1497  0509  96          	sub	a, (hl)
1498  050A  38 16       	jr	C,l_spr_check_over_00113
1499  050C  79          	ld	a,c
1500  050D  B7          	or	a, a
1501  050E  28 07       	jr	Z,l_spr_check_over_00106
1502  0510  CD 6B 09    	call	_spr_back_fix1
1503  0513  2E 01       	ld	l,0x01
1504  0515  18 0D       	jr	l_spr_check_over_00114
1505  0517              l_spr_check_over_00106:
1506  0517  78          	ld	a,b
1507  0518  B7          	or	a, a
1508  0519  28 07       	jr	Z,l_spr_check_over_00113
1509  051B  CD AC 09    	call	_spr_back_fix2
1510  051E  2E 01       	ld	l,0x01
1511  0520  18 02       	jr	l_spr_check_over_00114
1512  0522              l_spr_check_over_00113:
1513  0522  2E 00       	ld	l,0x00
1514  0524              l_spr_check_over_00114:
1515  0524  C9          	ret
1516  0525              ;	---------------------------------
1517  0525              ; Function spr_destroy
1518  0525              ; ---------------------------------
1519  0525              _spr_destroy:
1520  0525  CD 00 00    	call	___sdcc_enter_ix
1521  0528  F5          	push	af
1522  0529  4D          	ld	c,l
1523  052A  21 00 00    	ld	hl,_spr_count
1524  052D  35          	dec	(hl)
1525  052E  3E 00       	ld	a,+((_lin) & 0xFF)
1526  0530  81          	add	a, c
1527  0531  DD 77 FE    	ld	(ix-2),a
1528  0534  3E 00       	ld	a,+((_lin) / 256)
1529  0536  CE 00       	adc	a,0x00
1530  0538  DD 77 FF    	ld	(ix-1),a
1531  053B  E1          	pop	hl
1532  053C  7E          	ld	a,(hl)
1533  053D  E5          	push	hl
1534  053E  32 00 00    	ld	(_s_lin0),a
1535  0541  3E 00       	ld	a,+((_col) & 0xFF)
1536  0543  81          	add	a, c
1537  0544  5F          	ld	e,a
1538  0545  3E 00       	ld	a,+((_col) / 256)
1539  0547  CE 00       	adc	a,0x00
1540  0549  57          	ld	d,a
1541  054A  1A          	ld	a,(de)
1542  054B  32 00 00    	ld	(_s_col0),a
1543  054E  06 00       	ld	b,0x00
1544  0550  21 00 00    	ld	hl,_tile
1545  0553  09          	add	hl, bc
1546  0554  36 A9       	ld	(hl),0xa9
1547  0556  AF          	xor	a, a
1548  0557  E1          	pop	hl
1549  0558  12          	ld	(de),a
1550  0559  E5          	push	hl
1551  055A  36 00       	ld	(hl),0x00
1552  055C  11 00 00    	ld	de,_class+0
1553  055F  69          	ld	l,c
1554  0560  26 00       	ld	h,0x00
1555  0562  19          	add	hl,de
1556  0563  36 00       	ld	(hl),0x00
1557  0565  11 00 00    	ld	de,_state+0
1558  0568  69          	ld	l,c
1559  0569  26 00       	ld	h,0x00
1560  056B  19          	add	hl,de
1561  056C  36 00       	ld	(hl),0x00
1562  056E  21 00 00    	ld	hl,0x0000
1563  0571  E5          	push	hl
1564  0572  3E A9       	ld	a,0xa9
1565  0574  F5          	push	af
1566  0575  33          	inc	sp
1567  0576  79          	ld	a,c
1568  0577  F5          	push	af
1569  0578  33          	inc	sp
1570  0579  CD 00 00    	call	_NIRVANAP_spriteT_callee
1571  057C  76          	halt
1572  057D  2A FF FF    	ld	hl,(_s_col0 - 1)
1573  0580  3A 00 00    	ld	a,(_s_lin0)
1574  0583  6F          	ld	l,a
1575  0584  E5          	push	hl
1576  0585  AF          	xor	a, a
1577  0586  F5          	push	af
1578  0587  33          	inc	sp
1579  0588  CD 00 00    	call	_NIRVANAP_fillT_callee
1580  058B  3A 00 00    	ld	a,(_game_over)
1581  058E  B7          	or	a, a
1582  058F  20 03       	jr	NZ,l_spr_destroy_00103
1583  0591  CD D6 04    	call	_spr_check_over
1584  0594              l_spr_destroy_00103:
1585  0594  F1          	pop	af
1586  0595  DD E1       	pop	ix
1587  0597  C9          	ret
1588  0598              ;	---------------------------------
1589  0598              ; Function spr_set_fall
1590  0598              ; ---------------------------------
1591  0598              _spr_set_fall:
1592  0598  21 00 00    	ld	hl,_s_state
1593  059B  CB 86       	res	0, (hl)
1594  059D  CB CE       	set	1, (hl)
1595  059F  21 00 00    	ld	hl,_sprite
1596  05A2  7E          	ld	a,(hl)
1597  05A3  D6 06       	sub	a,0x06
1598  05A5  38 0E       	jr	C,l_spr_set_fall_00104
1599  05A7  3E 00       	ld	a,+((_sprite_speed_alt) & 0xFF)
1600  05A9  86          	add	a, (hl)
1601  05AA  4F          	ld	c,a
1602  05AB  3E 00       	ld	a,+((_sprite_speed_alt) / 256)
1603  05AD  CE 00       	adc	a,0x00
1604  05AF  47          	ld	b,a
1605  05B0  3E 02       	ld	a,0x02
1606  05B2  02          	ld	(bc),a
1607  05B3  18 1C       	jr	l_spr_set_fall_00106
1608  05B5              l_spr_set_fall_00104:
1609  05B5  2A 00 00    	ld	hl,(_sprite)
1610  05B8  26 00       	ld	h,0x00
1611  05BA  01 00 00    	ld	bc,_class
1612  05BD  09          	add	hl,bc
1613  05BE  4E          	ld	c,(hl)
1614  05BF  3E 08       	ld	a,0x08
1615  05C1  91          	sub	a,c
1616  05C2  D8          	ret	C
1617  05C3  3A 00 00    	ld	a,(_sprite)
1618  05C6  C6 00       	add	a,+((_sprite_speed_alt) & 0xFF)
1619  05C8  4F          	ld	c,a
1620  05C9  3E 00       	ld	a,+((_sprite_speed_alt) / 256)
1621  05CB  CE 00       	adc	a,0x00
1622  05CD  47          	ld	b,a
1623  05CE  3E 01       	ld	a,0x01
1624  05D0  02          	ld	(bc),a
1625  05D1              l_spr_set_fall_00106:
1626  05D1  C9          	ret
1627  05D2              ;	---------------------------------
1628  05D2              ; Function spr_tile
1629  05D2              ; ---------------------------------
1630  05D2              _spr_tile:
1631  05D2  55          	ld	d,l
1632  05D3  01 00 00    	ld	bc,_state+0
1633  05D6  26 00       	ld	h,0x00
1634  05D8  09          	add	hl,bc
1635  05D9  CB 76       	bit	6,(hl)
1636  05DB  28 07       	jr	Z,l_spr_tile_00102
1637  05DD  21 00 00    	ld	hl,_tmp
1638  05E0  36 03       	ld	(hl),0x03
1639  05E2  18 05       	jr	l_spr_tile_00103
1640  05E4              l_spr_tile_00102:
1641  05E4  21 00 00    	ld	hl,_tmp
1642  05E7  36 00       	ld	(hl),0x00
1643  05E9              l_spr_tile_00103:
1644  05E9  01 00 00    	ld	bc,_state_a+0
1645  05EC  6A          	ld	l,d
1646  05ED  26 00       	ld	h,0x00
1647  05EF  09          	add	hl,bc
1648  05F0  CB 4E       	bit	1,(hl)
1649  05F2  28 05       	jr	Z,l_spr_tile_00105
1650  05F4  21 00 00    	ld	hl,_tmp
1651  05F7  36 09       	ld	(hl),0x09
1652  05F9              l_spr_tile_00105:
1653  05F9  01 00 00    	ld	bc,_class+0
1654  05FC  6A          	ld	l,d
1655  05FD  26 00       	ld	h,0x00
1656  05FF  09          	add	hl,bc
1657  0600  7E          	ld	a,(hl)
1658  0601  5F          	ld	e,a
1659  0602  D6 01       	sub	a,0x01
1660  0604  DA A3 06    	jp	C,l_spr_tile_00118
1661  0607  3E 0C       	ld	a,0x0c
1662  0609  93          	sub	a, e
1663  060A  DA A3 06    	jp	C,l_spr_tile_00118
1664  060D  1D          	dec	e
1665  060E  ED 4B 00 00 	ld	bc,(_tmp)
1666  0612  06 00       	ld	b,0x00
1667  0614  D5          	push	de
1668  0615  16 00       	ld	d,0x00
1669  0617  21 1F 06    	ld	hl,l_spr_tile_00139
1670  061A  19          	add	hl,de
1671  061B  19          	add	hl,de
1672  061C  19          	add	hl,de
1673  061D  D1          	pop	de
1674  061E  E9          	jp	(hl)
1675  061F              l_spr_tile_00139:
1676  061F  C3 43 06    	jp	l_spr_tile_00106
1677  0622  C3 53 06    	jp	l_spr_tile_00107
1678  0625  C3 63 06    	jp	l_spr_tile_00108
1679  0628  C3 73 06    	jp	l_spr_tile_00109
1680  062B  C3 79 06    	jp	l_spr_tile_00110
1681  062E  C3 7F 06    	jp	l_spr_tile_00111
1682  0631  C3 85 06    	jp	l_spr_tile_00112
1683  0634  C3 8A 06    	jp	l_spr_tile_00113
1684  0637  C3 94 06    	jp	l_spr_tile_00115
1685  063A  C3 99 06    	jp	l_spr_tile_00116
1686  063D  C3 9E 06    	jp	l_spr_tile_00117
1687  0640  C3 8F 06    	jp	l_spr_tile_00114
1688  0643              l_spr_tile_00106:
1689  0643  3E 03       	ld	a,0x03
1690  0645  5A          	ld	e,d
1691  0646  57          	ld	d,a
1692  0647  D5          	push	de
1693  0648  21 30 00    	ld	hl,0x0030
1694  064B  E5          	push	hl
1695  064C  CD A7 06    	call	_spr_tile_dir
1696  064F  F1          	pop	af
1697  0650  F1          	pop	af
1698  0651  18 53       	jr	l_spr_tile_00119
1699  0653              l_spr_tile_00107:
1700  0653  3E 03       	ld	a,0x03
1701  0655  5A          	ld	e,d
1702  0656  57          	ld	d,a
1703  0657  D5          	push	de
1704  0658  21 3C 00    	ld	hl,0x003c
1705  065B  E5          	push	hl
1706  065C  CD A7 06    	call	_spr_tile_dir
1707  065F  F1          	pop	af
1708  0660  F1          	pop	af
1709  0661  18 43       	jr	l_spr_tile_00119
1710  0663              l_spr_tile_00108:
1711  0663  3E 03       	ld	a,0x03
1712  0665  5A          	ld	e,d
1713  0666  57          	ld	d,a
1714  0667  D5          	push	de
1715  0668  21 48 00    	ld	hl,0x0048
1716  066B  E5          	push	hl
1717  066C  CD A7 06    	call	_spr_tile_dir
1718  066F  F1          	pop	af
1719  0670  F1          	pop	af
1720  0671  18 33       	jr	l_spr_tile_00119
1721  0673              l_spr_tile_00109:
1722  0673  21 54 00    	ld	hl,0x0054
1723  0676  09          	add	hl,bc
1724  0677  18 2D       	jr	l_spr_tile_00119
1725  0679              l_spr_tile_00110:
1726  0679  21 60 00    	ld	hl,0x0060
1727  067C  09          	add	hl,bc
1728  067D  18 27       	jr	l_spr_tile_00119
1729  067F              l_spr_tile_00111:
1730  067F  21 6C 00    	ld	hl,0x006c
1731  0682  09          	add	hl,bc
1732  0683  18 21       	jr	l_spr_tile_00119
1733  0685              l_spr_tile_00112:
1734  0685  21 7B 00    	ld	hl,0x007b
1735  0688  18 1C       	jr	l_spr_tile_00119
1736  068A              l_spr_tile_00113:
1737  068A  21 B4 00    	ld	hl,0x00b4
1738  068D  18 17       	jr	l_spr_tile_00119
1739  068F              l_spr_tile_00114:
1740  068F  21 B7 00    	ld	hl,0x00b7
1741  0692  18 12       	jr	l_spr_tile_00119
1742  0694              l_spr_tile_00115:
1743  0694  21 78 00    	ld	hl,0x0078
1744  0697  18 0D       	jr	l_spr_tile_00119
1745  0699              l_spr_tile_00116:
1746  0699  21 90 00    	ld	hl,0x0090
1747  069C  18 08       	jr	l_spr_tile_00119
1748  069E              l_spr_tile_00117:
1749  069E  21 96 00    	ld	hl,0x0096
1750  06A1  18 03       	jr	l_spr_tile_00119
1751  06A3              l_spr_tile_00118:
1752  06A3  21 00 00    	ld	hl,0x0000
1753  06A6              l_spr_tile_00119:
1754  06A6  C9          	ret
1755  06A7              ;	---------------------------------
1756  06A7              ; Function spr_tile_dir
1757  06A7              ; ---------------------------------
1758  06A7              _spr_tile_dir:
1759  06A7  CD 00 00    	call	___sdcc_enter_ix
1760  06AA  3E 00       	ld	a,+((_state) & 0xFF)
1761  06AC  DD 86 06    	add	a,(ix+6)
1762  06AF  4F          	ld	c,a
1763  06B0  3E 00       	ld	a,+((_state) / 256)
1764  06B2  CE 00       	adc	a,0x00
1765  06B4  47          	ld	b,a
1766  06B5  0A          	ld	a,(bc)
1767  06B6  4F          	ld	c,a
1768  06B7  CB 67       	bit	4,a
1769  06B9  28 0C       	jr	Z,l_spr_tile_dir_00102
1770  06BB  DD 6E 04    	ld	l,(ix+4)
1771  06BE  DD 66 05    	ld	h,(ix+5)
1772  06C1  11 06 00    	ld	de,0x0006
1773  06C4  19          	add	hl,de
1774  06C5  18 53       	jr	l_spr_tile_dir_00113
1775  06C7              l_spr_tile_dir_00102:
1776  06C7  3E 00       	ld	a,+((_state_a) & 0xFF)
1777  06C9  DD 86 06    	add	a,(ix+6)
1778  06CC  5F          	ld	e,a
1779  06CD  3E 00       	ld	a,+((_state_a) / 256)
1780  06CF  CE 00       	adc	a,0x00
1781  06D1  57          	ld	d,a
1782  06D2  1A          	ld	a,(de)
1783  06D3  47          	ld	b,a
1784  06D4  CB 4F       	bit	1,a
1785  06D6  28 0C       	jr	Z,l_spr_tile_dir_00104
1786  06D8  DD 6E 04    	ld	l,(ix+4)
1787  06DB  DD 66 05    	ld	h,(ix+5)
1788  06DE  11 09 00    	ld	de,0x0009
1789  06E1  19          	add	hl,de
1790  06E2  18 36       	jr	l_spr_tile_dir_00113
1791  06E4              l_spr_tile_dir_00104:
1792  06E4  CB 51       	bit	2, c
1793  06E6  28 08       	jr	Z,l_spr_tile_dir_00106
1794  06E8  DD 6E 04    	ld	l,(ix+4)
1795  06EB  DD 66 05    	ld	h,(ix+5)
1796  06EE  18 2A       	jr	l_spr_tile_dir_00113
1797  06F0              l_spr_tile_dir_00106:
1798  06F0  DD 5E 07    	ld	e,(ix+7)
1799  06F3  16 00       	ld	d,0x00
1800  06F5  DD 6E 04    	ld	l,(ix+4)
1801  06F8  DD 66 05    	ld	h,(ix+5)
1802  06FB  19          	add	hl,de
1803  06FC  EB          	ex	de,hl
1804  06FD  CB 59       	bit	3, c
1805  06FF  28 03       	jr	Z,l_spr_tile_dir_00108
1806  0701  EB          	ex	de,hl
1807  0702  18 16       	jr	l_spr_tile_dir_00113
1808  0704              l_spr_tile_dir_00108:
1809  0704  CB 60       	bit	4, b
1810  0706  28 08       	jr	Z,l_spr_tile_dir_00110
1811  0708  DD 6E 04    	ld	l,(ix+4)
1812  070B  DD 66 05    	ld	h,(ix+5)
1813  070E  18 0A       	jr	l_spr_tile_dir_00113
1814  0710              l_spr_tile_dir_00110:
1815  0710  CB 58       	bit	3, b
1816  0712  28 03       	jr	Z,l_spr_tile_dir_00112
1817  0714  EB          	ex	de,hl
1818  0715  18 03       	jr	l_spr_tile_dir_00113
1819  0717              l_spr_tile_dir_00112:
1820  0717  21 A9 00    	ld	hl,0x00a9
1821  071A              l_spr_tile_dir_00113:
1822  071A  DD E1       	pop	ix
1823  071C  C9          	ret
1824  071D              ;	---------------------------------
1825  071D              ; Function spr_draw_back
1826  071D              ; ---------------------------------
1827  071D              _spr_draw_back:
1828  071D  CD 00 00    	call	_NIRVANAP_stop
1829  0720  21 00 00    	ld	hl,0x0000
1830  0723  CD 00 00    	call	_zx_cls_fastcall
1831  0726  F3          	di
1832  0727  21 00 00    	ld	hl,_s_lin1
1833  072A  36 10       	ld	(hl),0x10
1834  072C              l_spr_draw_back_00107:
1835  072C  21 00 00    	ld	hl,_s_col1
1836  072F  36 00       	ld	(hl),0x00
1837  0731              l_spr_draw_back_00105:
1838  0731  2A FF FF    	ld	hl,(_s_col1 - 1)
1839  0734  3A 00 00    	ld	a,(_s_lin1)
1840  0737  6F          	ld	l,a
1841  0738  E5          	push	hl
1842  0739  CD 00 00    	call	_game_calc_index
1843  073C  F1          	pop	af
1844  073D  22 00 00    	ld	(_tmp_ui),hl
1845  0740  01 00 00    	ld	bc,_lvl_1
1846  0743  09          	add	hl,bc
1847  0744  7E          	ld	a,(hl)
1848  0745  D6 12       	sub	a,0x12
1849  0747  38 10       	jr	C,l_spr_draw_back_00106
1850  0749  2A FF FF    	ld	hl,(_s_col1 - 1)
1851  074C  3A 00 00    	ld	a,(_s_lin1)
1852  074F  6F          	ld	l,a
1853  0750  3A 00 00    	ld	a,(_game_brick_tile)
1854  0753  E5          	push	hl
1855  0754  F5          	push	af
1856  0755  33          	inc	sp
1857  0756  CD 00 00    	call	_NIRVANAP_drawT_raw_callee
1858  0759              l_spr_draw_back_00106:
1859  0759  21 00 00    	ld	hl,_s_col1
1860  075C  7E          	ld	a,(hl)
1861  075D  3C          	inc	a
1862  075E  3C          	inc	a
1863  075F  77          	ld	(hl),a
1864  0760  D6 20       	sub	a,0x20
1865  0762  38 CD       	jr	C,l_spr_draw_back_00105
1866  0764  21 00 00    	ld	hl,_s_lin1
1867  0767  7E          	ld	a,(hl)
1868  0768  C6 08       	add	a,0x08
1869  076A  77          	ld	(hl),a
1870  076B  D6 B6       	sub	a,0xb6
1871  076D  38 BD       	jr	C,l_spr_draw_back_00107
1872  076F  FB          	ei
1873  0770  CD 00 00    	call	_NIRVANAP_start
1874  0773  CD 6B 09    	call	_spr_back_fix1
1875  0776  CD AC 09    	call	_spr_back_fix2
1876  0779  CD ED 09    	call	_spr_back_fix3
1877  077C  CD 2F 0A    	call	_spr_back_fix4
1878  077F  CD E9 07    	call	_spr_draw_pow
1879  0782  76          	halt
1880  0783  21 00 00    	ld	hl,_screen_ink
1881  0786  36 06       	ld	(hl),0x06
1882  0788  21 00 00    	ld	hl,_screen_paper
1883  078B  36 10       	ld	(hl),0x10
1884  078D  21 14 23    	ld	hl,0x2314
1885  0790  E5          	push	hl
1886  0791  CD 00 00    	call	_game_fill_row
1887  0794  21 15 23    	ld	hl,0x2315
1888  0797  E5          	push	hl
1889  0798  CD 00 00    	call	_game_fill_row
1890  079B  21 00 00    	ld	hl,_screen_paper
1891  079E  36 00       	ld	(hl),0x00
1892  07A0  21 00 00    	ld	hl,_screen_ink
1893  07A3  36 00       	ld	(hl),0x00
1894  07A5  21 0C 20    	ld	hl,0x200c
1895  07A8  E5          	push	hl
1896  07A9  CD 00 00    	call	_game_fill_row
1897  07AC  CD 00 00    	call	_game_print_footer
1898  07AF  C9          	ret
1899  07B0              ;	---------------------------------
1900  07B0              ; Function spr_draw_clear
1901  07B0              ; ---------------------------------
1902  07B0              _spr_draw_clear:
1903  07B0  F3          	di
1904  07B1  21 00 00    	ld	hl,0x0000
1905  07B4  CD 00 00    	call	_zx_cls_fastcall
1906  07B7  21 00 00    	ld	hl,_s_lin1
1907  07BA  36 10       	ld	(hl),0x10
1908  07BC              l_spr_draw_clear_00105:
1909  07BC  21 00 00    	ld	hl,_s_col1
1910  07BF  36 00       	ld	(hl),0x00
1911  07C1              l_spr_draw_clear_00103:
1912  07C1  3A 00 00    	ld	a,(_s_col1)
1913  07C4  F5          	push	af
1914  07C5  33          	inc	sp
1915  07C6  3A 00 00    	ld	a,(_s_lin1)
1916  07C9  57          	ld	d,a
1917  07CA  1E A9       	ld	e,0xa9
1918  07CC  D5          	push	de
1919  07CD  CD 00 00    	call	_NIRVANAP_drawT_raw_callee
1920  07D0  21 00 00    	ld	hl,_s_col1
1921  07D3  7E          	ld	a,(hl)
1922  07D4  3C          	inc	a
1923  07D5  3C          	inc	a
1924  07D6  77          	ld	(hl),a
1925  07D7  D6 20       	sub	a,0x20
1926  07D9  38 E6       	jr	C,l_spr_draw_clear_00103
1927  07DB  21 00 00    	ld	hl,_s_lin1
1928  07DE  7E          	ld	a,(hl)
1929  07DF  C6 10       	add	a,0x10
1930  07E1  77          	ld	(hl),a
1931  07E2  3E A2       	ld	a,0xa2
1932  07E4  96          	sub	a, (hl)
1933  07E5  30 D5       	jr	NC,l_spr_draw_clear_00105
1934  07E7  FB          	ei
1935  07E8  C9          	ret
1936  07E9              ;	---------------------------------
1937  07E9              ; Function spr_draw_pow
1938  07E9              ; ---------------------------------
1939  07E9              _spr_draw_pow:
1940  07E9  3A 00 00    	ld	a,(_game_pow)
1941  07EC  B7          	or	a, a
1942  07ED  28 37       	jr	Z,l_spr_draw_pow_00109
1943  07EF  D6 03       	sub	a,0x03
1944  07F1  20 05       	jr	NZ,l_spr_draw_pow_00102
1945  07F3  21 00 00    	ld	hl,_s_tile1
1946  07F6  36 BF       	ld	(hl),0xbf
1947  07F8              l_spr_draw_pow_00102:
1948  07F8  3A 00 00    	ld	a,(_game_pow)
1949  07FB  D6 02       	sub	a,0x02
1950  07FD  20 05       	jr	NZ,l_spr_draw_pow_00104
1951  07FF  21 00 00    	ld	hl,_s_tile1
1952  0802  36 CB       	ld	(hl),0xcb
1953  0804              l_spr_draw_pow_00104:
1954  0804  3A 00 00    	ld	a,(_game_pow)
1955  0807  3D          	dec	a
1956  0808  20 05       	jr	NZ,l_spr_draw_pow_00106
1957  080A  21 00 00    	ld	hl,_s_tile1
1958  080D  36 D7       	ld	(hl),0xd7
1959  080F              l_spr_draw_pow_00106:
1960  080F  76          	halt
1961  0810  21 80 0F    	ld	hl,0x0f80
1962  0813  E5          	push	hl
1963  0814  AF          	xor	a, a
1964  0815  F5          	push	af
1965  0816  33          	inc	sp
1966  0817  CD 00 00    	call	_NIRVANAP_fillT_callee
1967  081A  3A 00 00    	ld	a,(_s_tile1)
1968  081D  21 80 0F    	ld	hl,0x0f80
1969  0820  E5          	push	hl
1970  0821  F5          	push	af
1971  0822  33          	inc	sp
1972  0823  CD 00 00    	call	_NIRVANAP_drawT_callee
1973  0826              l_spr_draw_pow_00109:
1974  0826  C9          	ret
1975  0827              ;	---------------------------------
1976  0827              ; Function spr_back_clr
1977  0827              ; ---------------------------------
1978  0827              _spr_back_clr:
1979  0827  2A FF FF    	ld	hl,(_s_col0 - 1)
1980  082A  3A 00 00    	ld	a,(_s_lin0)
1981  082D  6F          	ld	l,a
1982  082E  E5          	push	hl
1983  082F  AF          	xor	a, a
1984  0830  F5          	push	af
1985  0831  33          	inc	sp
1986  0832  CD 00 00    	call	_NIRVANAP_fillC_callee
1987  0835  21 00 00    	ld	hl,_s_col0
1988  0838  46          	ld	b,(hl)
1989  0839  04          	inc	b
1990  083A  C5          	push	bc
1991  083B  33          	inc	sp
1992  083C  2A FF FF    	ld	hl,(_s_lin0 - 1)
1993  083F  AF          	xor	a,a
1994  0840  6F          	ld	l,a
1995  0841  E5          	push	hl
1996  0842  CD 00 00    	call	_NIRVANAP_fillC_callee
1997  0845  3A 00 00    	ld	a,(_s_lin0)
1998  0848  C6 08       	add	a,0x08
1999  084A  4F          	ld	c, a
2000  084B  3A 00 00    	ld	a, (_s_col0)
2001  084E  47          	ld	b,a
2002  084F  C5          	push	bc
2003  0850  AF          	xor	a, a
2004  0851  F5          	push	af
2005  0852  33          	inc	sp
2006  0853  CD 00 00    	call	_NIRVANAP_fillC_callee
2007  0856  21 00 00    	ld	hl,_s_col0
2008  0859  56          	ld	d,(hl)
2009  085A  14          	inc	d
2010  085B  3A 00 00    	ld	a,(_s_lin0)
2011  085E  C6 08       	add	a,0x08
2012  0860  5F          	ld	e, a
2013  0861  D5          	push	de
2014  0862  AF          	xor	a, a
2015  0863  F5          	push	af
2016  0864  33          	inc	sp
2017  0865  CD 00 00    	call	_NIRVANAP_fillC_callee
2018  0868  C9          	ret
2019  0869              ;	---------------------------------
2020  0869              ; Function spr_back_fix
2021  0869              ; ---------------------------------
2022  0869              _spr_back_fix:
2023  0869  CD 00 00    	call	___sdcc_enter_ix
2024  086C  3B          	dec	sp
2025  086D  DD 75 FF    	ld	(ix-1),l
2026  0870  3A 00 00    	ld	a,(_s_lin0)
2027  0873  DD 86 FF    	add	a,(ix-1)
2028  0876  4F          	ld	c, a
2029  0877  3A 00 00    	ld	a, (_s_col0)
2030  087A  47          	ld	b,a
2031  087B  C5          	push	bc
2032  087C  CD 00 00    	call	_game_calc_index
2033  087F  F1          	pop	af
2034  0880  22 00 00    	ld	(_index1),hl
2035  0883  01 00 00    	ld	bc,_lvl_1
2036  0886  09          	add	hl,bc
2037  0887  7E          	ld	a,(hl)
2038  0888  4F          	ld	c,a
2039  0889  D6 12       	sub	a,0x12
2040  088B  28 09       	jr	Z,l_spr_back_fix_00118
2041  088D  79          	ld	a,c
2042  088E  D6 14       	sub	a,0x14
2043  0890  28 04       	jr	Z,l_spr_back_fix_00118
2044  0892  0E 00       	ld	c,0x00
2045  0894  18 02       	jr	l_spr_back_fix_00119
2046  0896              l_spr_back_fix_00118:
2047  0896  0E 01       	ld	c,0x01
2048  0898              l_spr_back_fix_00119:
2049  0898  21 00 00    	ld	hl,_tmp
2050  089B  71          	ld	(hl),c
2051  089C  ED 4B 00 00 	ld	bc,(_index1)
2052  08A0  03          	inc	bc
2053  08A1  21 00 00    	ld	hl,_lvl_1
2054  08A4  09          	add	hl,bc
2055  08A5  7E          	ld	a,(hl)
2056  08A6  4F          	ld	c,a
2057  08A7  D6 12       	sub	a,0x12
2058  08A9  28 09       	jr	Z,l_spr_back_fix_00121
2059  08AB  79          	ld	a,c
2060  08AC  D6 14       	sub	a,0x14
2061  08AE  28 04       	jr	Z,l_spr_back_fix_00121
2062  08B0  0E 00       	ld	c,0x00
2063  08B2  18 02       	jr	l_spr_back_fix_00122
2064  08B4              l_spr_back_fix_00121:
2065  08B4  0E 01       	ld	c,0x01
2066  08B6              l_spr_back_fix_00122:
2067  08B6  21 00 00    	ld	hl,_tmp0
2068  08B9  71          	ld	(hl),c
2069  08BA  CD 27 08    	call	_spr_back_clr
2070  08BD  3A 00 00    	ld	a,(_tmp)
2071  08C0  B7          	or	a, a
2072  08C1  20 07       	jr	NZ,l_spr_back_fix_00107
2073  08C3  3A 00 00    	ld	a,(_tmp0)
2074  08C6  B7          	or	a, a
2075  08C7  CA 4A 09    	jp	Z,l_spr_back_fix_00108
2076  08CA              l_spr_back_fix_00107:
2077  08CA  3A 00 00    	ld	a,(_s_col0)
2078  08CD  32 00 00    	ld	(_s_col1),a
2079  08D0  01 00 00    	ld	bc,_lvl_1
2080  08D3  2A 00 00    	ld	hl,(_index1)
2081  08D6  09          	add	hl,bc
2082  08D7  6E          	ld	l, (hl)
2083  08D8  26 00       	ld	h,0x00
2084  08DA  29          	add	hl, hl
2085  08DB  11 00 00    	ld	de,_spr_idx
2086  08DE  19          	add	hl,de
2087  08DF  7E          	ld	a,(hl)
2088  08E0  32 00 00    	ld	(_s_tile1),a
2089  08E3  4F          	ld	c,a
2090  08E4  3A 00 00    	ld	a,(_s_lin0)
2091  08E7  DD 86 FF    	add	a,(ix-1)
2092  08EA  21 00 00    	ld	hl,_s_lin1
2093  08ED  77          	ld	(hl),a
2094  08EE  0F          	rrca
2095  08EF  0F          	rrca
2096  08F0  0F          	rrca
2097  08F1  E6 1F       	and	a,0x1f
2098  08F3  77          	ld	(hl),a
2099  08F4  07          	rlca
2100  08F5  07          	rlca
2101  08F6  07          	rlca
2102  08F7  E6 F8       	and	a,0xf8
2103  08F9  77          	ld	(hl),a
2104  08FA  3A 00 00    	ld	a,(_tmp)
2105  08FD  B7          	or	a, a
2106  08FE  20 22       	jr	NZ,l_spr_back_fix_00102
2107  0900  3A 00 00    	ld	a,(_tmp0)
2108  0903  B7          	or	a, a
2109  0904  28 1C       	jr	Z,l_spr_back_fix_00102
2110  0906  3A 00 00    	ld	a,(_s_col0)
2111  0909  3C          	inc	a
2112  090A  32 00 00    	ld	(_s_col1),a
2113  090D  ED 5B 00 00 	ld	de,(_index1)
2114  0911  13          	inc	de
2115  0912  21 00 00    	ld	hl,_lvl_1
2116  0915  19          	add	hl,de
2117  0916  6E          	ld	l,(hl)
2118  0917  26 00       	ld	h,0x00
2119  0919  29          	add	hl, hl
2120  091A  11 00 00    	ld	de,_spr_idx
2121  091D  19          	add	hl,de
2122  091E  7E          	ld	a,(hl)
2123  091F  32 00 00    	ld	(_s_tile1),a
2124  0922              l_spr_back_fix_00102:
2125  0922  3A 00 00    	ld	a,(_tmp)
2126  0925  B7          	or	a, a
2127  0926  28 12       	jr	Z,l_spr_back_fix_00105
2128  0928  3A 00 00    	ld	a,(_tmp0)
2129  092B  B7          	or	a, a
2130  092C  20 0C       	jr	NZ,l_spr_back_fix_00105
2131  092E  3A 00 00    	ld	a,(_s_col0)
2132  0931  C6 FF       	add	a,0xff
2133  0933  32 00 00    	ld	(_s_col1),a
2134  0936  21 00 00    	ld	hl,_s_tile1
2135  0939  71          	ld	(hl),c
2136  093A              l_spr_back_fix_00105:
2137  093A  2A FF FF    	ld	hl,(_s_col1 - 1)
2138  093D  3A 00 00    	ld	a,(_s_lin1)
2139  0940  6F          	ld	l,a
2140  0941  3A 00 00    	ld	a,(_s_tile1)
2141  0944  E5          	push	hl
2142  0945  F5          	push	af
2143  0946  33          	inc	sp
2144  0947  CD 00 00    	call	_NIRVANAP_drawT_callee
2145  094A              l_spr_back_fix_00108:
2146  094A  21 00 00    	ld	hl,_s_lin0
2147  094D  7E          	ld	a,(hl)
2148  094E  D6 70       	sub	a,0x70
2149  0950  38 15       	jr	C,l_spr_back_fix_00115
2150  0952  3E 90       	ld	a,0x90
2151  0954  96          	sub	a, (hl)
2152  0955  38 10       	jr	C,l_spr_back_fix_00115
2153  0957  21 00 00    	ld	hl,_s_col0
2154  095A  7E          	ld	a,(hl)
2155  095B  D6 0E       	sub	a,0x0e
2156  095D  38 08       	jr	C,l_spr_back_fix_00115
2157  095F  3E 10       	ld	a,0x10
2158  0961  96          	sub	a, (hl)
2159  0962  38 03       	jr	C,l_spr_back_fix_00115
2160  0964  CD E9 07    	call	_spr_draw_pow
2161  0967              l_spr_back_fix_00115:
2162  0967  33          	inc	sp
2163  0968  DD E1       	pop	ix
2164  096A  C9          	ret
2165  096B              ;	---------------------------------
2166  096B              ; Function spr_back_fix1
2167  096B              ; ---------------------------------
2168  096B              _spr_back_fix1:
2169  096B  76          	halt
2170  096C  21 10 00    	ld	hl,0x0010
2171  096F  E5          	push	hl
2172  0970  3E A5       	ld	a,0xa5
2173  0972  F5          	push	af
2174  0973  33          	inc	sp
2175  0974  CD 00 00    	call	_NIRVANAP_drawT_callee
2176  0977  21 20 00    	ld	hl,0x0020
2177  097A  E5          	push	hl
2178  097B  3E B1       	ld	a,0xb1
2179  097D  F5          	push	af
2180  097E  33          	inc	sp
2181  097F  CD 00 00    	call	_NIRVANAP_drawT_callee
2182  0982  21 10 02    	ld	hl,0x0210
2183  0985  E5          	push	hl
2184  0986  3E B3       	ld	a,0xb3
2185  0988  F5          	push	af
2186  0989  33          	inc	sp
2187  098A  CD 00 00    	call	_NIRVANAP_drawT_callee
2188  098D  21 20 02    	ld	hl,0x0220
2189  0990  E5          	push	hl
2190  0991  AF          	xor	a, a
2191  0992  F5          	push	af
2192  0993  33          	inc	sp
2193  0994  CD 00 00    	call	_NIRVANAP_fillT_callee
2194  0997  21 10 04    	ld	hl,0x0410
2195  099A  E5          	push	hl
2196  099B  AF          	xor	a, a
2197  099C  F5          	push	af
2198  099D  33          	inc	sp
2199  099E  CD 00 00    	call	_NIRVANAP_fillT_callee
2200  09A1  21 20 04    	ld	hl,0x0420
2201  09A4  E5          	push	hl
2202  09A5  AF          	xor	a, a
2203  09A6  F5          	push	af
2204  09A7  33          	inc	sp
2205  09A8  CD 00 00    	call	_NIRVANAP_fillT_callee
2206  09AB  C9          	ret
2207  09AC              ;	---------------------------------
2208  09AC              ; Function spr_back_fix2
2209  09AC              ; ---------------------------------
2210  09AC              _spr_back_fix2:
2211  09AC  76          	halt
2212  09AD  21 10 1C    	ld	hl,0x1c10
2213  09B0  E5          	push	hl
2214  09B1  3E A7       	ld	a,0xa7
2215  09B3  F5          	push	af
2216  09B4  33          	inc	sp
2217  09B5  CD 00 00    	call	_NIRVANAP_drawT_callee
2218  09B8  21 10 1E    	ld	hl,0x1e10
2219  09BB  E5          	push	hl
2220  09BC  3E A6       	ld	a,0xa6
2221  09BE  F5          	push	af
2222  09BF  33          	inc	sp
2223  09C0  CD 00 00    	call	_NIRVANAP_drawT_callee
2224  09C3  21 20 1E    	ld	hl,0x1e20
2225  09C6  E5          	push	hl
2226  09C7  3E B2       	ld	a,0xb2
2227  09C9  F5          	push	af
2228  09CA  33          	inc	sp
2229  09CB  CD 00 00    	call	_NIRVANAP_drawT_callee
2230  09CE  21 20 1C    	ld	hl,0x1c20
2231  09D1  E5          	push	hl
2232  09D2  AF          	xor	a, a
2233  09D3  F5          	push	af
2234  09D4  33          	inc	sp
2235  09D5  CD 00 00    	call	_NIRVANAP_fillT_callee
2236  09D8  21 10 1A    	ld	hl,0x1a10
2237  09DB  E5          	push	hl
2238  09DC  AF          	xor	a, a
2239  09DD  F5          	push	af
2240  09DE  33          	inc	sp
2241  09DF  CD 00 00    	call	_NIRVANAP_fillT_callee
2242  09E2  21 20 1A    	ld	hl,0x1a20
2243  09E5  E5          	push	hl
2244  09E6  AF          	xor	a, a
2245  09E7  F5          	push	af
2246  09E8  33          	inc	sp
2247  09E9  CD 00 00    	call	_NIRVANAP_fillT_callee
2248  09EC  C9          	ret
2249  09ED              ;	---------------------------------
2250  09ED              ; Function spr_back_fix3
2251  09ED              ; ---------------------------------
2252  09ED              _spr_back_fix3:
2253  09ED  76          	halt
2254  09EE  21 88 00    	ld	hl,0x0088
2255  09F1  E5          	push	hl
2256  09F2  3E A3       	ld	a,0xa3
2257  09F4  F5          	push	af
2258  09F5  33          	inc	sp
2259  09F6  CD 00 00    	call	_NIRVANAP_drawT_callee
2260  09F9  21 98 00    	ld	hl,0x0098
2261  09FC  E5          	push	hl
2262  09FD  3E AF       	ld	a,0xaf
2263  09FF  F5          	push	af
2264  0A00  33          	inc	sp
2265  0A01  CD 00 00    	call	_NIRVANAP_drawT_callee
2266  0A04  21 88 02    	ld	hl,0x0288
2267  0A07  E5          	push	hl
2268  0A08  3E A4       	ld	a,0xa4
2269  0A0A  F5          	push	af
2270  0A0B  33          	inc	sp
2271  0A0C  CD 00 00    	call	_NIRVANAP_drawT_callee
2272  0A0F  21 98 02    	ld	hl,0x0298
2273  0A12  E5          	push	hl
2274  0A13  3E B0       	ld	a,0xb0
2275  0A15  F5          	push	af
2276  0A16  33          	inc	sp
2277  0A17  CD 00 00    	call	_NIRVANAP_drawT_callee
2278  0A1A  21 88 04    	ld	hl,0x0488
2279  0A1D  E5          	push	hl
2280  0A1E  AF          	xor	a, a
2281  0A1F  F5          	push	af
2282  0A20  33          	inc	sp
2283  0A21  CD 00 00    	call	_NIRVANAP_fillT_callee
2284  0A24  21 98 04    	ld	hl,0x0498
2285  0A27  E5          	push	hl
2286  0A28  AF          	xor	a, a
2287  0A29  F5          	push	af
2288  0A2A  33          	inc	sp
2289  0A2B  CD 00 00    	call	_NIRVANAP_fillT_callee
2290  0A2E  C9          	ret
2291  0A2F              ;	---------------------------------
2292  0A2F              ; Function spr_back_fix4
2293  0A2F              ; ---------------------------------
2294  0A2F              _spr_back_fix4:
2295  0A2F  76          	halt
2296  0A30  21 88 1E    	ld	hl,0x1e88
2297  0A33  E5          	push	hl
2298  0A34  3E A3       	ld	a,0xa3
2299  0A36  F5          	push	af
2300  0A37  33          	inc	sp
2301  0A38  CD 00 00    	call	_NIRVANAP_drawT_callee
2302  0A3B  21 98 1E    	ld	hl,0x1e98
2303  0A3E  E5          	push	hl
2304  0A3F  3E AF       	ld	a,0xaf
2305  0A41  F5          	push	af
2306  0A42  33          	inc	sp
2307  0A43  CD 00 00    	call	_NIRVANAP_drawT_callee
2308  0A46  21 88 1C    	ld	hl,0x1c88
2309  0A49  E5          	push	hl
2310  0A4A  3E A2       	ld	a,0xa2
2311  0A4C  F5          	push	af
2312  0A4D  33          	inc	sp
2313  0A4E  CD 00 00    	call	_NIRVANAP_drawT_callee
2314  0A51  21 98 1C    	ld	hl,0x1c98
2315  0A54  E5          	push	hl
2316  0A55  3E AE       	ld	a,0xae
2317  0A57  F5          	push	af
2318  0A58  33          	inc	sp
2319  0A59  CD 00 00    	call	_NIRVANAP_drawT_callee
2320  0A5C  21 88 1A    	ld	hl,0x1a88
2321  0A5F  E5          	push	hl
2322  0A60  AF          	xor	a, a
2323  0A61  F5          	push	af
2324  0A62  33          	inc	sp
2325  0A63  CD 00 00    	call	_NIRVANAP_fillT_callee
2326  0A66  21 98 1A    	ld	hl,0x1a98
2327  0A69  E5          	push	hl
2328  0A6A  AF          	xor	a, a
2329  0A6B  F5          	push	af
2330  0A6C  33          	inc	sp
2331  0A6D  CD 00 00    	call	_NIRVANAP_fillT_callee
2332  0A70  C9          	ret
2333  0A71              ;	---------------------------------
2334  0A71              ; Function spr_brick_anim
2335  0A71              ; ---------------------------------
2336  0A71              _spr_brick_anim:
2337  0A71  CD 00 00    	call	___sdcc_enter_ix
2338  0A74  F5          	push	af
2339  0A75  DD 75 FE    	ld	(ix-2),l
2340  0A78  21 00 00    	ld	hl,_tmp0
2341  0A7B  36 A9       	ld	(hl),0xa9
2342  0A7D  2A 00 00    	ld	hl,(_index1)
2343  0A80  01 01 00    	ld	bc,0x0001
2344  0A83  09          	add	hl,bc
2345  0A84  22 00 00    	ld	(_index2),hl
2346  0A87  01 00 00    	ld	bc,_lvl_1+0
2347  0A8A  2A 00 00    	ld	hl,(_index1)
2348  0A8D  09          	add	hl,bc
2349  0A8E  7E          	ld	a,(hl)
2350  0A8F  DD 77 FF    	ld	(ix-1),a
2351  0A92  2A 00 00    	ld	hl,(_index2)
2352  0A95  09          	add	hl,bc
2353  0A96  DD 7E FF    	ld	a,(ix-1)
2354  0A99  D6 12       	sub	a,0x12
2355  0A9B  4D          	ld	c,l
2356  0A9C  44          	ld	b,h
2357  0A9D  28 05       	jr	Z,l_spr_brick_anim_00101
2358  0A9F  0A          	ld	a,(bc)
2359  0AA0  D6 12       	sub	a,0x12
2360  0AA2  20 06       	jr	NZ,l_spr_brick_anim_00102
2361  0AA4              l_spr_brick_anim_00101:
2362  0AA4  3A 00 00    	ld	a,(_game_brick_tile)
2363  0AA7  32 00 00    	ld	(_tmp0),a
2364  0AAA              l_spr_brick_anim_00102:
2365  0AAA  DD 7E FF    	ld	a,(ix-1)
2366  0AAD  D6 14       	sub	a,0x14
2367  0AAF  28 05       	jr	Z,l_spr_brick_anim_00104
2368  0AB1  0A          	ld	a,(bc)
2369  0AB2  D6 14       	sub	a,0x14
2370  0AB4  20 05       	jr	NZ,l_spr_brick_anim_00105
2371  0AB6              l_spr_brick_anim_00104:
2372  0AB6  21 00 00    	ld	hl,_tmp0
2373  0AB9  36 8B       	ld	(hl),0x8b
2374  0ABB              l_spr_brick_anim_00105:
2375  0ABB  DD 7E FE    	ld	a,(ix-2)
2376  0ABE  B7          	or	a, a
2377  0ABF  28 11       	jr	Z,l_spr_brick_anim_00108
2378  0AC1  2A 00 00    	ld	hl,(_index_player)
2379  0AC4  26 00       	ld	h,0x00
2380  0AC6  11 00 00    	ld	de,_hit_lin
2381  0AC9  19          	add	hl,de
2382  0ACA  7E          	ld	a,(hl)
2383  0ACB  C6 F6       	add	a,0xf6
2384  0ACD  32 00 00    	ld	(_tmp),a
2385  0AD0  18 0F       	jr	l_spr_brick_anim_00109
2386  0AD2              l_spr_brick_anim_00108:
2387  0AD2  2A 00 00    	ld	hl,(_index_player)
2388  0AD5  26 00       	ld	h,0x00
2389  0AD7  11 00 00    	ld	de,_hit_lin
2390  0ADA  19          	add	hl,de
2391  0ADB  7E          	ld	a,(hl)
2392  0ADC  C6 F8       	add	a,0xf8
2393  0ADE  32 00 00    	ld	(_tmp),a
2394  0AE1              l_spr_brick_anim_00109:
2395  0AE1  21 00 00    	ld	hl,_tmp_uc
2396  0AE4  36 00       	ld	(hl),0x00
2397  0AE6  DD 7E FF    	ld	a,(ix-1)
2398  0AE9  D6 12       	sub	a,0x12
2399  0AEB  38 12       	jr	C,l_spr_brick_anim_00111
2400  0AED  0A          	ld	a,(bc)
2401  0AEE  B7          	or	a, a
2402  0AEF  20 0E       	jr	NZ,l_spr_brick_anim_00111
2403  0AF1  2A 00 00    	ld	hl,(_index_player)
2404  0AF4  26 00       	ld	h,0x00
2405  0AF6  11 00 00    	ld	de,_hit_col
2406  0AF9  19          	add	hl,de
2407  0AFA  7E          	ld	a,(hl)
2408  0AFB  3C          	inc	a
2409  0AFC  32 00 00    	ld	(_tmp_uc),a
2410  0AFF              l_spr_brick_anim_00111:
2411  0AFF  DD 7E FF    	ld	a,(ix-1)
2412  0B02  B7          	or	a, a
2413  0B03  20 14       	jr	NZ,l_spr_brick_anim_00114
2414  0B05  0A          	ld	a,(bc)
2415  0B06  D6 12       	sub	a,0x12
2416  0B08  38 0F       	jr	C,l_spr_brick_anim_00114
2417  0B0A  3A 00 00    	ld	a,(_index_player)
2418  0B0D  C6 00       	add	a,+((_hit_col) & 0xFF)
2419  0B0F  4F          	ld	c,a
2420  0B10  3E 00       	ld	a,+((_hit_col) / 256)
2421  0B12  CE 00       	adc	a,0x00
2422  0B14  47          	ld	b,a
2423  0B15  0A          	ld	a,(bc)
2424  0B16  32 00 00    	ld	(_tmp_uc),a
2425  0B19              l_spr_brick_anim_00114:
2426  0B19  DD 7E FE    	ld	a,(ix-2)
2427  0B1C  B7          	or	a, a
2428  0B1D  28 1B       	jr	Z,l_spr_brick_anim_00117
2429  0B1F  3A 00 00    	ld	a,(_index_player)
2430  0B22  C6 00       	add	a,+((_hit_col) & 0xFF)
2431  0B24  4F          	ld	c,a
2432  0B25  3E 00       	ld	a,+((_hit_col) / 256)
2433  0B27  CE 00       	adc	a,0x00
2434  0B29  47          	ld	b,a
2435  0B2A  0A          	ld	a,(bc)
2436  0B2B  F5          	push	af
2437  0B2C  33          	inc	sp
2438  0B2D  2A FF FF    	ld	hl,(_tmp - 1)
2439  0B30  3A 00 00    	ld	a,(_tmp0)
2440  0B33  6F          	ld	l,a
2441  0B34  E5          	push	hl
2442  0B35  CD 00 00    	call	_NIRVANAP_drawT_callee
2443  0B38  18 39       	jr	l_spr_brick_anim_00118
2444  0B3A              l_spr_brick_anim_00117:
2445  0B3A  3E 00       	ld	a,+((_hit_col) & 0xFF)
2446  0B3C  21 00 00    	ld	hl,_index_player
2447  0B3F  86          	add	a, (hl)
2448  0B40  4F          	ld	c,a
2449  0B41  3E 00       	ld	a,+((_hit_col) / 256)
2450  0B43  CE 00       	adc	a,0x00
2451  0B45  47          	ld	b,a
2452  0B46  0A          	ld	a,(bc)
2453  0B47  57          	ld	d,a
2454  0B48  4E          	ld	c,(hl)
2455  0B49  06 00       	ld	b,0x00
2456  0B4B  21 00 00    	ld	hl,_hit_lin
2457  0B4E  09          	add	hl,bc
2458  0B4F  7E          	ld	a,(hl)
2459  0B50  C6 F0       	add	a,0xf0
2460  0B52  5F          	ld	e, a
2461  0B53  D5          	push	de
2462  0B54  AF          	xor	a, a
2463  0B55  F5          	push	af
2464  0B56  33          	inc	sp
2465  0B57  CD 00 00    	call	_NIRVANAP_fillT_callee
2466  0B5A  3A 00 00    	ld	a,(_index_player)
2467  0B5D  C6 00       	add	a,+((_hit_col) & 0xFF)
2468  0B5F  4F          	ld	c,a
2469  0B60  3E 00       	ld	a,+((_hit_col) / 256)
2470  0B62  CE 00       	adc	a,0x00
2471  0B64  47          	ld	b,a
2472  0B65  0A          	ld	a,(bc)
2473  0B66  F5          	push	af
2474  0B67  33          	inc	sp
2475  0B68  2A FF FF    	ld	hl,(_tmp - 1)
2476  0B6B  3A 00 00    	ld	a,(_tmp0)
2477  0B6E  6F          	ld	l,a
2478  0B6F  E5          	push	hl
2479  0B70  CD 00 00    	call	_NIRVANAP_drawT_callee
2480  0B73              l_spr_brick_anim_00118:
2481  0B73  3A 00 00    	ld	a,(_tmp_uc)
2482  0B76  B7          	or	a, a
2483  0B77  28 0C       	jr	Z,l_spr_brick_anim_00121
2484  0B79  F5          	push	af
2485  0B7A  33          	inc	sp
2486  0B7B  2A FF FF    	ld	hl,(_tmp - 1)
2487  0B7E  AF          	xor	a,a
2488  0B7F  6F          	ld	l,a
2489  0B80  E5          	push	hl
2490  0B81  CD 00 00    	call	_NIRVANAP_fillC_callee
2491  0B84  76          	halt
2492  0B85              l_spr_brick_anim_00121:
2493  0B85  F1          	pop	af
2494  0B86  DD E1       	pop	ix
2495  0B88  C9          	ret
2496  0B89              ;	---------------------------------
2497  0B89              ; Function spr_cortina_brick
2498  0B89              ; ---------------------------------
2499  0B89              _spr_cortina_brick:
2500  0B89  21 00 00    	ld	hl,_screen_ink
2501  0B8C  36 06       	ld	(hl),0x06
2502  0B8E  21 00 00    	ld	hl,_screen_paper
2503  0B91  36 10       	ld	(hl),0x10
2504  0B93  21 00 00    	ld	hl,_tmp
2505  0B96  36 00       	ld	(hl),0x00
2506  0B98  21 00 00    	ld	hl,_tmp0
2507  0B9B  36 17       	ld	(hl),0x17
2508  0B9D              l_spr_cortina_brick_00101:
2509  0B9D  21 00 00    	ld	hl,_tmp
2510  0BA0  7E          	ld	a,(hl)
2511  0BA1  D6 0D       	sub	a,0x0d
2512  0BA3  30 20       	jr	NC,l_spr_cortina_brick_00103
2513  0BA5  6E          	ld	l,(hl)
2514  0BA6  26 23       	ld	h,0x23
2515  0BA8  E5          	push	hl
2516  0BA9  CD 00 00    	call	_game_fill_row
2517  0BAC  2A 00 00    	ld	hl,(_tmp0)
2518  0BAF  26 23       	ld	h,0x23
2519  0BB1  E5          	push	hl
2520  0BB2  CD 00 00    	call	_game_fill_row
2521  0BB5  21 00 00    	ld	hl,_tmp0
2522  0BB8  35          	dec	(hl)
2523  0BB9  21 00 00    	ld	hl,_tmp
2524  0BBC  34          	inc	(hl)
2525  0BBD  21 19 00    	ld	hl,0x0019
2526  0BC0  CD 00 00    	call	_z80_delay_ms_fastcall
2527  0BC3  18 D8       	jr	l_spr_cortina_brick_00101
2528  0BC5              l_spr_cortina_brick_00103:
2529  0BC5  21 00 00    	ld	hl,0x0000
2530  0BC8  CD 00 00    	call	_zx_cls_fastcall
2531  0BCB  21 00 00    	ld	hl,_screen_paper
2532  0BCE  36 00       	ld	(hl),0x00
2533  0BD0  C9          	ret
2534  0BD1              ;	---------------------------------
2535  0BD1              ; Function spr_cortina_pipes
2536  0BD1              ; ---------------------------------
2537  0BD1              _spr_cortina_pipes:
2538  0BD1  76          	halt
2539  0BD2  21 00 00    	ld	hl,0x0000
2540  0BD5  C3 00 00    	jp  _zx_cls_fastcall
2541  0BD8              ;	---------------------------------
2542  0BD8              ; Function spr_water_splash_draw
2543  0BD8              ; ---------------------------------
2544  0BD8              _spr_water_splash_draw:
2545  0BD8  45          	ld	b,l
2546  0BD9  3A 00 00    	ld	a,(_spr_water_clear)
2547  0BDC  3C          	inc	a
2548  0BDD  C0          	ret	NZ
2549  0BDE  21 00 00    	ld	hl,_screen_paper
2550  0BE1  36 10       	ld	(hl),0x10
2551  0BE3  21 00 00    	ld	hl,_screen_ink
2552  0BE6  36 05       	ld	(hl),0x05
2553  0BE8  C5          	push	bc
2554  0BE9  21 1B 0C    	ld	hl,___str_0
2555  0BEC  E5          	push	hl
2556  0BED  C5          	push	bc
2557  0BEE  33          	inc	sp
2558  0BEF  3E 14       	ld	a,0x14
2559  0BF1  F5          	push	af
2560  0BF2  33          	inc	sp
2561  0BF3  CD 00 00    	call	_zx_print_str
2562  0BF6  C1          	pop	bc
2563  0BF7  21 00 00    	ld	hl,_screen_ink
2564  0BFA  36 07       	ld	(hl),0x07
2565  0BFC  C5          	push	bc
2566  0BFD  21 1E 0C    	ld	hl,___str_1
2567  0C00  E5          	push	hl
2568  0C01  C5          	push	bc
2569  0C02  33          	inc	sp
2570  0C03  3E 15       	ld	a,0x15
2571  0C05  F5          	push	af
2572  0C06  33          	inc	sp
2573  0C07  CD 00 00    	call	_zx_print_str
2574  0C0A  C1          	pop	bc
2575  0C0B  21 00 00    	ld	hl,_spr_water_clear
2576  0C0E  70          	ld	(hl),b
2577  0C0F  2A 00 00    	ld	hl,(_curr_time)
2578  0C12  22 00 00    	ld	(_spr_water_time),hl
2579  0C15  21 00 00    	ld	hl,_screen_paper
2580  0C18  36 00       	ld	(hl),0x00
2581  0C1A  C9          	ret
2582  0C1B              ___str_0:
2583  0C1B  28 29       	DEFM "()"
2584  0C1D  00          	DEFB 0x00
2585  0C1E              ___str_1:
2586  0C1E  2A 2B       	DEFM "*+"
2587  0C20  00          	DEFB 0x00
2588  0C21              ;	---------------------------------
2589  0C21              ; Function spr_water_splash_clear
2590  0C21              ; ---------------------------------
2591  0C21              _spr_water_splash_clear:
2592  0C21  3A 00 00    	ld	a,(_spr_water_clear)
2593  0C24  D6 20       	sub	a,0x20
2594  0C26  D0          	ret	NC
2595  0C27  21 0F 00    	ld	hl,0x000f
2596  0C2A  E5          	push	hl
2597  0C2B  2A 00 00    	ld	hl,(_spr_water_time)
2598  0C2E  E5          	push	hl
2599  0C2F  CD 00 00    	call	_game_check_time
2600  0C32  F1          	pop	af
2601  0C33  F1          	pop	af
2602  0C34  7D          	ld	a,l
2603  0C35  B7          	or	a, a
2604  0C36  C8          	ret	Z
2605  0C37  21 00 00    	ld	hl,_screen_ink
2606  0C3A  36 06       	ld	(hl),0x06
2607  0C3C  21 00 00    	ld	hl,_screen_paper
2608  0C3F  36 10       	ld	(hl),0x10
2609  0C41  3A 00 00    	ld	a,(_spr_water_clear)
2610  0C44  21 6D 0C    	ld	hl,___str_2
2611  0C47  E5          	push	hl
2612  0C48  57          	ld	d,a
2613  0C49  1E 14       	ld	e,0x14
2614  0C4B  D5          	push	de
2615  0C4C  CD 00 00    	call	_zx_print_str
2616  0C4F  3A 00 00    	ld	a,(_spr_water_clear)
2617  0C52  21 6D 0C    	ld	hl,___str_2
2618  0C55  E5          	push	hl
2619  0C56  57          	ld	d,a
2620  0C57  1E 15       	ld	e,0x15
2621  0C59  D5          	push	de
2622  0C5A  CD 00 00    	call	_zx_print_str
2623  0C5D  21 00 00    	ld	hl,_screen_ink
2624  0C60  36 07       	ld	(hl),0x07
2625  0C62  21 00 00    	ld	hl,_screen_paper
2626  0C65  36 00       	ld	(hl),0x00
2627  0C67  21 00 00    	ld	hl,_spr_water_clear
2628  0C6A  36 FF       	ld	(hl),0xff
2629  0C6C  C9          	ret
2630  0C6D              ___str_2:
2631  0C6D  23 23       	DEFM "##"
2632  0C6F  00          	DEFB 0x00
2633  0C70              	SECTION IGNORE
2634  0000              
